

Microchip MPLAB XC8 Assembler V2.32 build 20210201212658 
                                                                                               Fri Feb 18 13:02:59 2022

Microchip MPLAB XC8 C Compiler v2.32 (Free license) build 20210201212658 Og1 
     1                           	processor	16F887
     2                           	pagewidth 120
     3                           	opt	flic
     4                           	psect	strings,global,class=STRING,delta=2,noexec
     5                           	psect	cinit,global,class=CODE,merge=1,delta=2
     6                           	psect	bssBANK0,global,class=BANK0,space=1,delta=1,noexec
     7                           	psect	clrtext,global,class=CODE,delta=2
     8                           	psect	cstackCOMMON,global,class=COMMON,space=1,delta=1,noexec
     9                           	psect	cstackBANK0,global,class=BANK0,space=1,delta=1,noexec
    10                           	psect	maintext,global,class=CODE,split=1,delta=2
    11                           	psect	text1,local,class=CODE,merge=1,delta=2
    12                           	psect	text2,local,class=CODE,merge=1,delta=2,group=1
    13                           	psect	text3,local,class=CODE,merge=1,delta=2,group=1
    14                           	psect	text4,local,class=CODE,merge=1,delta=2
    15                           	psect	text5,local,class=CODE,merge=1,delta=2
    16                           	psect	text6,local,class=CODE,merge=1,delta=2
    17                           	psect	text7,local,class=CODE,merge=1,delta=2
    18                           	psect	text8,local,class=CODE,merge=1,delta=2
    19                           	psect	text9,local,class=CODE,merge=1,delta=2
    20                           	psect	text10,local,class=CODE,merge=1,delta=2
    21                           	psect	text11,local,class=CODE,merge=1,delta=2
    22                           	psect	text12,local,class=CODE,merge=1,delta=2
    23                           	psect	text13,local,class=CODE,merge=1,delta=2
    24                           	psect	text14,local,class=CODE,merge=1,delta=2
    25                           	psect	text15,local,class=CODE,merge=1,delta=2
    26                           	psect	text16,local,class=CODE,merge=1,delta=2,group=1
    27                           	psect	text17,local,class=CODE,merge=1,delta=2
    28                           	psect	text18,local,class=CODE,merge=1,delta=2
    29                           	psect	text19,local,class=CODE,merge=1,delta=2
    30                           	psect	text20,local,class=CODE,merge=1,delta=2
    31                           	psect	text21,local,class=CODE,merge=1,delta=2
    32                           	psect	text22,local,class=CODE,merge=1,delta=2
    33                           	psect	text23,local,class=CODE,merge=1,delta=2
    34                           	psect	text24,local,class=CODE,merge=1,delta=2,group=2
    35                           	psect	text25,local,class=CODE,merge=1,delta=2
    36                           	psect	text26,local,class=CODE,merge=1,delta=2
    37                           	psect	text27,local,class=CODE,merge=1,delta=2
    38                           	psect	text28,local,class=CODE,merge=1,delta=2
    39                           	psect	intentry,global,class=CODE,delta=2
    40                           	psect	text29,local,class=CODE,merge=1,delta=2
    41                           	psect	config,global,abs,ovrld,class=CONFIG,space=4,delta=2,noexec
    42                           	dabs	1,0x7E,2
    43  0000                     
    44                           ; Version 2.20
    45                           ; Generated 12/02/2020 GMT
    46                           ; 
    47                           ; Copyright © 2020, Microchip Technology Inc. and its subsidiaries ("Microchip")
    48                           ; All rights reserved.
    49                           ; 
    50                           ; This software is developed by Microchip Technology Inc. and its subsidiaries ("Microch
      +                          ip").
    51                           ; 
    52                           ; Redistribution and use in source and binary forms, with or without modification, are
    53                           ; permitted provided that the following conditions are met:
    54                           ; 
    55                           ;     1. Redistributions of source code must retain the above copyright notice, this lis
      +                          t of
    56                           ;        conditions and the following disclaimer.
    57                           ; 
    58                           ;     2. Redistributions in binary form must reproduce the above copyright notice, this 
      +                          list
    59                           ;        of conditions and the following disclaimer in the documentation and/or other
    60                           ;        materials provided with the distribution.
    61                           ; 
    62                           ;     3. Microchip's name may not be used to endorse or promote products derived from th
      +                          is
    63                           ;        software without specific prior written permission.
    64                           ; 
    65                           ; THIS SOFTWARE IS PROVIDED BY MICROCHIP "AS IS" AND ANY EXPRESS OR IMPLIED WARRANTIES,
    66                           ; INCLUDING, BUT NOT LIMITED TO, THE IMPLIED WARRANTIES OF MERCHANTABILITY AND FITNESS F
      +                          OR
    67                           ; PURPOSE ARE DISCLAIMED.  IN NO EVENT SHALL MICROCHIP BE LIABLE FOR ANY DIRECT, INDIREC
      +                          T,
    68                           ; INCIDENTAL, SPECIAL, EXEMPLARY, OR CONSEQUENTIAL DAMAGES (INCLUDING BUT NOT LIMITED TO
    69                           ; PROCUREMENT OF SUBSTITUTE GOODS OR SERVICES; LOSS OF USE, DATA OR PROFITS; OR BUSINESS
    70                           ; INTERRUPTION) HOWSOEVER CAUSED AND ON ANY THEORY OF LIABILITY, WHETHER IN CONTRACT, ST
      +                          RICT
    71                           ; LIABILITY, OR TORT (INCLUDING NEGLIGENCE OR OTHERWISE) ARISING IN ANY WAY OUT OF THE U
      +                          SE OF
    72                           ; THIS SOFTWARE, EVEN IF ADVISED OF THE POSSIBILITY OF SUCH DAMAGE.
    73                           ; 
    74                           ; 
    75                           ; Code-generator required, PIC16F887 Definitions
    76                           ; 
    77                           ; SFR Addresses
    78  0000                     	;# 
    79  0001                     	;# 
    80  0002                     	;# 
    81  0003                     	;# 
    82  0004                     	;# 
    83  0005                     	;# 
    84  0006                     	;# 
    85  0007                     	;# 
    86  0008                     	;# 
    87  0009                     	;# 
    88  000A                     	;# 
    89  000B                     	;# 
    90  000C                     	;# 
    91  000D                     	;# 
    92  000E                     	;# 
    93  000E                     	;# 
    94  000F                     	;# 
    95  0010                     	;# 
    96  0011                     	;# 
    97  0012                     	;# 
    98  0013                     	;# 
    99  0014                     	;# 
   100  0015                     	;# 
   101  0015                     	;# 
   102  0016                     	;# 
   103  0017                     	;# 
   104  0018                     	;# 
   105  0019                     	;# 
   106  001A                     	;# 
   107  001B                     	;# 
   108  001B                     	;# 
   109  001C                     	;# 
   110  001D                     	;# 
   111  001E                     	;# 
   112  001F                     	;# 
   113  0081                     	;# 
   114  0085                     	;# 
   115  0086                     	;# 
   116  0087                     	;# 
   117  0088                     	;# 
   118  0089                     	;# 
   119  008C                     	;# 
   120  008D                     	;# 
   121  008E                     	;# 
   122  008F                     	;# 
   123  0090                     	;# 
   124  0091                     	;# 
   125  0092                     	;# 
   126  0093                     	;# 
   127  0093                     	;# 
   128  0093                     	;# 
   129  0094                     	;# 
   130  0095                     	;# 
   131  0096                     	;# 
   132  0097                     	;# 
   133  0098                     	;# 
   134  0099                     	;# 
   135  009A                     	;# 
   136  009B                     	;# 
   137  009C                     	;# 
   138  009D                     	;# 
   139  009E                     	;# 
   140  009F                     	;# 
   141  0105                     	;# 
   142  0107                     	;# 
   143  0108                     	;# 
   144  0109                     	;# 
   145  010C                     	;# 
   146  010C                     	;# 
   147  010D                     	;# 
   148  010E                     	;# 
   149  010F                     	;# 
   150  0185                     	;# 
   151  0187                     	;# 
   152  0188                     	;# 
   153  0189                     	;# 
   154  018C                     	;# 
   155  018D                     	;# 
   156  0000                     	;# 
   157  0001                     	;# 
   158  0002                     	;# 
   159  0003                     	;# 
   160  0004                     	;# 
   161  0005                     	;# 
   162  0006                     	;# 
   163  0007                     	;# 
   164  0008                     	;# 
   165  0009                     	;# 
   166  000A                     	;# 
   167  000B                     	;# 
   168  000C                     	;# 
   169  000D                     	;# 
   170  000E                     	;# 
   171  000E                     	;# 
   172  000F                     	;# 
   173  0010                     	;# 
   174  0011                     	;# 
   175  0012                     	;# 
   176  0013                     	;# 
   177  0014                     	;# 
   178  0015                     	;# 
   179  0015                     	;# 
   180  0016                     	;# 
   181  0017                     	;# 
   182  0018                     	;# 
   183  0019                     	;# 
   184  001A                     	;# 
   185  001B                     	;# 
   186  001B                     	;# 
   187  001C                     	;# 
   188  001D                     	;# 
   189  001E                     	;# 
   190  001F                     	;# 
   191  0081                     	;# 
   192  0085                     	;# 
   193  0086                     	;# 
   194  0087                     	;# 
   195  0088                     	;# 
   196  0089                     	;# 
   197  008C                     	;# 
   198  008D                     	;# 
   199  008E                     	;# 
   200  008F                     	;# 
   201  0090                     	;# 
   202  0091                     	;# 
   203  0092                     	;# 
   204  0093                     	;# 
   205  0093                     	;# 
   206  0093                     	;# 
   207  0094                     	;# 
   208  0095                     	;# 
   209  0096                     	;# 
   210  0097                     	;# 
   211  0098                     	;# 
   212  0099                     	;# 
   213  009A                     	;# 
   214  009B                     	;# 
   215  009C                     	;# 
   216  009D                     	;# 
   217  009E                     	;# 
   218  009F                     	;# 
   219  0105                     	;# 
   220  0107                     	;# 
   221  0108                     	;# 
   222  0109                     	;# 
   223  010C                     	;# 
   224  010C                     	;# 
   225  010D                     	;# 
   226  010E                     	;# 
   227  010F                     	;# 
   228  0185                     	;# 
   229  0187                     	;# 
   230  0188                     	;# 
   231  0189                     	;# 
   232  018C                     	;# 
   233  018D                     	;# 
   234  0000                     	;# 
   235  0001                     	;# 
   236  0002                     	;# 
   237  0003                     	;# 
   238  0004                     	;# 
   239  0005                     	;# 
   240  0006                     	;# 
   241  0007                     	;# 
   242  0008                     	;# 
   243  0009                     	;# 
   244  000A                     	;# 
   245  000B                     	;# 
   246  000C                     	;# 
   247  000D                     	;# 
   248  000E                     	;# 
   249  000E                     	;# 
   250  000F                     	;# 
   251  0010                     	;# 
   252  0011                     	;# 
   253  0012                     	;# 
   254  0013                     	;# 
   255  0014                     	;# 
   256  0015                     	;# 
   257  0015                     	;# 
   258  0016                     	;# 
   259  0017                     	;# 
   260  0018                     	;# 
   261  0019                     	;# 
   262  001A                     	;# 
   263  001B                     	;# 
   264  001B                     	;# 
   265  001C                     	;# 
   266  001D                     	;# 
   267  001E                     	;# 
   268  001F                     	;# 
   269  0081                     	;# 
   270  0085                     	;# 
   271  0086                     	;# 
   272  0087                     	;# 
   273  0088                     	;# 
   274  0089                     	;# 
   275  008C                     	;# 
   276  008D                     	;# 
   277  008E                     	;# 
   278  008F                     	;# 
   279  0090                     	;# 
   280  0091                     	;# 
   281  0092                     	;# 
   282  0093                     	;# 
   283  0093                     	;# 
   284  0093                     	;# 
   285  0094                     	;# 
   286  0095                     	;# 
   287  0096                     	;# 
   288  0097                     	;# 
   289  0098                     	;# 
   290  0099                     	;# 
   291  009A                     	;# 
   292  009B                     	;# 
   293  009C                     	;# 
   294  009D                     	;# 
   295  009E                     	;# 
   296  009F                     	;# 
   297  0105                     	;# 
   298  0107                     	;# 
   299  0108                     	;# 
   300  0109                     	;# 
   301  010C                     	;# 
   302  010C                     	;# 
   303  010D                     	;# 
   304  010E                     	;# 
   305  010F                     	;# 
   306  0185                     	;# 
   307  0187                     	;# 
   308  0188                     	;# 
   309  0189                     	;# 
   310  018C                     	;# 
   311  018D                     	;# 
   312  0000                     	;# 
   313  0001                     	;# 
   314  0002                     	;# 
   315  0003                     	;# 
   316  0004                     	;# 
   317  0005                     	;# 
   318  0006                     	;# 
   319  0007                     	;# 
   320  0008                     	;# 
   321  0009                     	;# 
   322  000A                     	;# 
   323  000B                     	;# 
   324  000C                     	;# 
   325  000D                     	;# 
   326  000E                     	;# 
   327  000E                     	;# 
   328  000F                     	;# 
   329  0010                     	;# 
   330  0011                     	;# 
   331  0012                     	;# 
   332  0013                     	;# 
   333  0014                     	;# 
   334  0015                     	;# 
   335  0015                     	;# 
   336  0016                     	;# 
   337  0017                     	;# 
   338  0018                     	;# 
   339  0019                     	;# 
   340  001A                     	;# 
   341  001B                     	;# 
   342  001B                     	;# 
   343  001C                     	;# 
   344  001D                     	;# 
   345  001E                     	;# 
   346  001F                     	;# 
   347  0081                     	;# 
   348  0085                     	;# 
   349  0086                     	;# 
   350  0087                     	;# 
   351  0088                     	;# 
   352  0089                     	;# 
   353  008C                     	;# 
   354  008D                     	;# 
   355  008E                     	;# 
   356  008F                     	;# 
   357  0090                     	;# 
   358  0091                     	;# 
   359  0092                     	;# 
   360  0093                     	;# 
   361  0093                     	;# 
   362  0093                     	;# 
   363  0094                     	;# 
   364  0095                     	;# 
   365  0096                     	;# 
   366  0097                     	;# 
   367  0098                     	;# 
   368  0099                     	;# 
   369  009A                     	;# 
   370  009B                     	;# 
   371  009C                     	;# 
   372  009D                     	;# 
   373  009E                     	;# 
   374  009F                     	;# 
   375  0105                     	;# 
   376  0107                     	;# 
   377  0108                     	;# 
   378  0109                     	;# 
   379  010C                     	;# 
   380  010C                     	;# 
   381  010D                     	;# 
   382  010E                     	;# 
   383  010F                     	;# 
   384  0185                     	;# 
   385  0187                     	;# 
   386  0188                     	;# 
   387  0189                     	;# 
   388  018C                     	;# 
   389  018D                     	;# 
   390  0009                     _PORTEbits	set	9
   391  0019                     _TXREG	set	25
   392  0018                     _RCSTAbits	set	24
   393  0013                     _SSPBUF	set	19
   394  0014                     _SSPCONbits	set	20
   395  000E                     _TMR1L	set	14
   396  000F                     _TMR1H	set	15
   397  0010                     _T1CONbits	set	16
   398  0001                     _TMR0	set	1
   399  001F                     _ADCON0bits	set	31
   400  0005                     _PORTAbits	set	5
   401  0008                     _PORTDbits	set	8
   402  000B                     _INTCONbits	set	11
   403  0009                     _PORTE	set	9
   404  0007                     _PORTC	set	7
   405  0008                     _PORTD	set	8
   406  0006                     _PORTB	set	6
   407  0005                     _PORTA	set	5
   408  000C                     _PIR1bits	set	12
   409  0099                     _SPBRG	set	153
   410  0098                     _TXSTAbits	set	152
   411  0087                     _TRISCbits	set	135
   412  0094                     _SSPSTATbits	set	148
   413  0081                     _OPTION_REGbits	set	129
   414  0096                     _IOCBbits	set	150
   415  008F                     _OSCCONbits	set	143
   416  009F                     _ADCON1bits	set	159
   417  0086                     _TRISBbits	set	134
   418  0089                     _TRISEbits	set	137
   419  0085                     _TRISAbits	set	133
   420  008C                     _PIE1bits	set	140
   421  0089                     _TRISE	set	137
   422  0087                     _TRISC	set	135
   423  0088                     _TRISD	set	136
   424  0086                     _TRISB	set	134
   425  0085                     _TRISA	set	133
   426  0187                     _BAUDCTLbits	set	391
   427  0189                     _ANSELHbits	set	393
   428  0188                     _ANSELbits	set	392
   429  0189                     _ANSELH	set	393
   430  0188                     _ANSEL	set	392
   431                           
   432                           	psect	strings
   433  055A                     __pstrings:
   434  055A                     stringtab:
   435  055A                     __stringtab:
   436                           
   437                           ;	String table - string pointers are 1 byte each
   438  055A  1BFF               	btfsc	btemp+1,7
   439  055B  2D64               	ljmp	stringcode
   440  055C  1383               	bcf	3,7
   441  055D  187F               	btfsc	btemp+1,0
   442  055E  1783               	bsf	3,7
   443  055F  0800               	movf	0,w
   444  0560  0A84               	incf	4,f
   445  0561  1903               	skipnz
   446  0562  0AFF               	incf	btemp+1,f
   447  0563  0008               	return
   448  0564                     stringcode:
   449  0564                     stringdir:
   450  0564  3005               	movlw	high stringdir
   451  0565  008A               	movwf	10
   452  0566  0804               	movf	4,w
   453  0567  0A84               	incf	4,f
   454  0568  0782               	addwf	2,f
   455  0569                     __stringbase:
   456  0569  3400               	retlw	0
   457  056A                     __end_of__stringtab:
   458  056A                     STR_1:
   459  056A  3453               	retlw	83	;'S'
   460  056B  3431               	retlw	49	;'1'
   461  056C  343A               	retlw	58	;':'
   462  056D  3420               	retlw	32	;' '
   463  056E  3420               	retlw	32	;' '
   464  056F  3420               	retlw	32	;' '
   465  0570  3453               	retlw	83	;'S'
   466  0571  3432               	retlw	50	;'2'
   467  0572  343A               	retlw	58	;':'
   468  0573  3420               	retlw	32	;' '
   469  0574  3420               	retlw	32	;' '
   470  0575  3453               	retlw	83	;'S'
   471  0576  3433               	retlw	51	;'3'
   472  0577  343A               	retlw	58	;':'
   473  0578  3400               	retlw	0
   474  0579                     STR_2:
   475  0579  3420               	retlw	32	;' '
   476  057A  3420               	retlw	32	;' '
   477  057B  3400               	retlw	0
   478  0579                     
   479                           	psect	cinit
   480  000F                     start_initialization:	
   481                           ; #config settings
   482                           
   483  000F                     __initialization:
   484                           
   485                           ; Clear objects allocated to BANK0
   486  000F  1383               	bcf	3,7	;select IRP bank0
   487  0010  304B               	movlw	low __pbssBANK0
   488  0011  0084               	movwf	4
   489  0012  306B               	movlw	low (__pbssBANK0+32)
   490  0013  120A  118A  2698  120A  118A  	fcall	clear_ram0
   491  0018                     end_of_initialization:	
   492                           ;End of C runtime variable initialization code
   493                           
   494  0018                     __end_of__initialization:
   495  0018  0183               	clrf	3
   496  0019  120A  118A  281C   	ljmp	_main	;jump to C main() function
   497                           
   498                           	psect	bssBANK0
   499  004B                     __pbssBANK0:
   500  004B                     main@F1476:
   501  004B                     	ds	5
   502  0050                     main@F1480:
   503  0050                     	ds	4
   504  0054                     main@F1478:
   505  0054                     	ds	4
   506  0058                     _comunicacion:
   507  0058                     	ds	1
   508  0059                     _tempS:
   509  0059                     	ds	5
   510  005E                     _contS:
   511  005E                     	ds	5
   512  0063                     _potS:
   513  0063                     	ds	5
   514  0068                     _temp:
   515  0068                     	ds	1
   516  0069                     _cont:
   517  0069                     	ds	1
   518  006A                     _pot:
   519  006A                     	ds	1
   520                           
   521                           	psect	clrtext
   522  0698                     clear_ram0:	
   523                           ;	Called with FSR containing the base address, and
   524                           ;	W with the last address+1
   525                           
   526  0698  0064               	clrwdt	;clear the watchdog before getting into this loop
   527  0699                     clrloop0:
   528  0699  0180               	clrf	0	;clear RAM location pointed to by FSR
   529  069A  0A84               	incf	4,f	;increment pointer
   530  069B  0604               	xorwf	4,w	;XOR with final address
   531  069C  1903               	btfsc	3,2	;have we reached the end yet?
   532  069D  3400               	retlw	0	;all done for this memory range, return
   533  069E  0604               	xorwf	4,w	;XOR again to restore value
   534  069F  2E99               	goto	clrloop0	;do the next byte
   535                           
   536                           	psect	cstackCOMMON
   537  0070                     __pcstackCOMMON:
   538  0070                     ?_resTimer1:
   539  0070                     ?_configuracion:	
   540                           ; 1 bytes @ 0x0
   541                           
   542  0070                     ?_initLCD:	
   543                           ; 1 bytes @ 0x0
   544                           
   545  0070                     ?_selectSlave:	
   546                           ; 1 bytes @ 0x0
   547                           
   548  0070                     ?_SPIsendValue:	
   549                           ; 1 bytes @ 0x0
   550                           
   551  0070                     ?_SPIreadValue:	
   552                           ; 1 bytes @ 0x0
   553                           
   554  0070                     ?_LCD_setDDRAM:	
   555                           ; 1 bytes @ 0x0
   556                           
   557  0070                     ?_LCD_wRAM:	
   558                           ; 1 bytes @ 0x0
   559                           
   560  0070                     ?_UARTprintCharacter:	
   561                           ; 1 bytes @ 0x0
   562                           
   563  0070                     ?_UARTprintDigit:	
   564                           ; 1 bytes @ 0x0
   565                           
   566  0070                     ?_initSPI_maestro:	
   567                           ; 1 bytes @ 0x0
   568                           
   569  0070                     ?_T1enableInterrupt:	
   570                           ; 1 bytes @ 0x0
   571                           
   572  0070                     ?_isr:	
   573                           ; 1 bytes @ 0x0
   574                           
   575  0070                     ?_main:	
   576                           ; 1 bytes @ 0x0
   577                           
   578  0070                     ?_SPIBufferVerify:	
   579                           ; 1 bytes @ 0x0
   580                           
   581  0070                     ?_LCD_executeInstruction:	
   582                           ; 1 bytes @ 0x0
   583                           
   584  0070                     ?_LCD_clearDisplay:	
   585                           ; 1 bytes @ 0x0
   586                           
   587  0070                     resTimer1@carga:	
   588                           ; 1 bytes @ 0x0
   589                           
   590                           
   591                           ; 2 bytes @ 0x0
   592  0070                     	ds	2
   593  0072                     ??_resTimer1:
   594                           
   595                           ; 1 bytes @ 0x2
   596  0072                     	ds	1
   597  0073                     resTimer1@T1L:
   598                           
   599                           ; 1 bytes @ 0x3
   600  0073                     	ds	1
   601  0074                     resTimer1@T1H:
   602                           
   603                           ; 1 bytes @ 0x4
   604  0074                     	ds	1
   605  0075                     ??_isr:
   606                           
   607                           ; 1 bytes @ 0x5
   608  0075                     	ds	2
   609  0077                     ??_SPIsendValue:
   610  0077                     ??_UARTprintCharacter:	
   611                           ; 1 bytes @ 0x7
   612                           
   613  0077                     ??_UARTprintDigit:	
   614                           ; 1 bytes @ 0x7
   615                           
   616  0077                     ??_initSPI_maestro:	
   617                           ; 1 bytes @ 0x7
   618                           
   619  0077                     ??_initUSARTransmit:	
   620                           ; 1 bytes @ 0x7
   621                           
   622  0077                     ??_T1enableInterrupt:	
   623                           ; 1 bytes @ 0x7
   624                           
   625  0077                     ??_strlen:	
   626                           ; 1 bytes @ 0x7
   627                           
   628  0077                     ??_SPIBufferVerify:	
   629                           ; 1 bytes @ 0x7
   630                           
   631  0077                     ??___wmul:	
   632                           ; 1 bytes @ 0x7
   633                           
   634                           
   635                           	psect	cstackBANK0
   636  0020                     __pcstackBANK0:	
   637                           ; 1 bytes @ 0x7
   638                           
   639  0020                     ??_selectSlave:
   640  0020                     ??_SPIreadValue:	
   641                           ; 1 bytes @ 0x0
   642                           
   643  0020                     ?_setupOsc:	
   644                           ; 1 bytes @ 0x0
   645                           
   646  0020                     ?_initUSARTransmit:	
   647                           ; 1 bytes @ 0x0
   648                           
   649  0020                     ?_setupTimer1:	
   650                           ; 1 bytes @ 0x0
   651                           
   652  0020                     ??_LCD_executeInstruction:	
   653                           ; 1 bytes @ 0x0
   654                           
   655  0020                     ?_strlen:	
   656                           ; 1 bytes @ 0x0
   657                           
   658  0020                     ?___wmul:	
   659                           ; 2 bytes @ 0x0
   660                           
   661  0020                     ?___awmod:	
   662                           ; 2 bytes @ 0x0
   663                           
   664  0020                     setupOsc@clkSrc:	
   665                           ; 2 bytes @ 0x0
   666                           
   667  0020                     setupTimer1@prescaler:	
   668                           ; 1 bytes @ 0x0
   669                           
   670  0020                     initSPI_maestro@SPIfosc:	
   671                           ; 1 bytes @ 0x0
   672                           
   673  0020                     SPIsendValue@valor:	
   674                           ; 1 bytes @ 0x0
   675                           
   676  0020                     initUSARTransmit@BRG16:	
   677                           ; 1 bytes @ 0x0
   678                           
   679  0020                     UARTprintCharacter@caracter:	
   680                           ; 1 bytes @ 0x0
   681                           
   682  0020                     UARTprintDigit@digito:	
   683                           ; 1 bytes @ 0x0
   684                           
   685  0020                     ___wmul@multiplier:	
   686                           ; 1 bytes @ 0x0
   687                           
   688  0020                     ___awmod@divisor:	
   689                           ; 2 bytes @ 0x0
   690                           
   691  0020                     strlen@s:	
   692                           ; 2 bytes @ 0x0
   693                           
   694                           
   695                           ; 2 bytes @ 0x0
   696  0020                     	ds	1
   697  0021                     ??_LCD_setDDRAM:
   698  0021                     ??_LCD_wRAM:	
   699                           ; 1 bytes @ 0x1
   700                           
   701  0021                     ??_setupOsc:	
   702                           ; 1 bytes @ 0x1
   703                           
   704  0021                     ??_LCD_clearDisplay:	
   705                           ; 1 bytes @ 0x1
   706                           
   707  0021                     ?_LCD_entryMode_set:	
   708                           ; 1 bytes @ 0x1
   709                           
   710  0021                     ?_LCD_displayOnOff:	
   711                           ; 1 bytes @ 0x1
   712                           
   713  0021                     ?_LCD_functionSet:	
   714                           ; 1 bytes @ 0x1
   715                           
   716  0021                     SPIreadValue@variable:	
   717                           ; 1 bytes @ 0x1
   718                           
   719  0021                     initUSARTransmit@vBRG:	
   720                           ; 1 bytes @ 0x1
   721                           
   722  0021                     LCD_entryMode_set@shift:	
   723                           ; 1 bytes @ 0x1
   724                           
   725  0021                     LCD_displayOnOff@cursor:	
   726                           ; 1 bytes @ 0x1
   727                           
   728  0021                     LCD_functionSet@lineNo:	
   729                           ; 1 bytes @ 0x1
   730                           
   731  0021                     setupTimer1@carga:	
   732                           ; 1 bytes @ 0x1
   733                           
   734                           
   735                           ; 2 bytes @ 0x1
   736  0021                     	ds	1
   737  0022                     ??_LCD_entryMode_set:
   738  0022                     selectSlave@slave:	
   739                           ; 1 bytes @ 0x2
   740                           
   741  0022                     setupOsc@freq:	
   742                           ; 1 bytes @ 0x2
   743                           
   744  0022                     initUSARTransmit@BRGH:	
   745                           ; 1 bytes @ 0x2
   746                           
   747  0022                     LCD_displayOnOff@blink:	
   748                           ; 1 bytes @ 0x2
   749                           
   750  0022                     LCD_functionSet@dispFont:	
   751                           ; 1 bytes @ 0x2
   752                           
   753  0022                     LCD_setDDRAM@address:	
   754                           ; 1 bytes @ 0x2
   755                           
   756  0022                     LCD_wRAM@data:	
   757                           ; 1 bytes @ 0x2
   758                           
   759  0022                     ___wmul@multiplicand:	
   760                           ; 1 bytes @ 0x2
   761                           
   762  0022                     ___awmod@dividend:	
   763                           ; 2 bytes @ 0x2
   764                           
   765  0022                     strlen@cp:	
   766                           ; 2 bytes @ 0x2
   767                           
   768                           
   769                           ; 2 bytes @ 0x2
   770  0022                     	ds	1
   771  0023                     ??_setupTimer1:
   772  0023                     ??_LCD_displayOnOff:	
   773                           ; 1 bytes @ 0x3
   774                           
   775  0023                     ??_LCD_functionSet:	
   776                           ; 1 bytes @ 0x3
   777                           
   778  0023                     LCD_entryMode_set@inc_dec:	
   779                           ; 1 bytes @ 0x3
   780                           
   781                           
   782                           ; 1 bytes @ 0x3
   783  0023                     	ds	1
   784  0024                     ?_LCDprintText:
   785  0024                     ?_UARTprintText:	
   786                           ; 1 bytes @ 0x4
   787                           
   788  0024                     ??___awmod:	
   789                           ; 1 bytes @ 0x4
   790                           
   791  0024                     setupTimer1@clkSrc:	
   792                           ; 1 bytes @ 0x4
   793                           
   794  0024                     UARTprintText@texto:	
   795                           ; 1 bytes @ 0x4
   796                           
   797  0024                     LCDprintText@texto:	
   798                           ; 2 bytes @ 0x4
   799                           
   800  0024                     ___wmul@product:	
   801                           ; 2 bytes @ 0x4
   802                           
   803                           
   804                           ; 2 bytes @ 0x4
   805  0024                     	ds	1
   806  0025                     setupTimer1@T1L:
   807  0025                     ___awmod@counter:	
   808                           ; 1 bytes @ 0x5
   809                           
   810                           
   811                           ; 1 bytes @ 0x5
   812  0025                     	ds	1
   813  0026                     ??_LCDprintText:
   814  0026                     ??_UARTprintText:	
   815                           ; 1 bytes @ 0x6
   816                           
   817  0026                     ?___awdiv:	
   818                           ; 1 bytes @ 0x6
   819                           
   820  0026                     setupTimer1@T1H:	
   821                           ; 2 bytes @ 0x6
   822                           
   823  0026                     LCD_displayOnOff@on_off:	
   824                           ; 1 bytes @ 0x6
   825                           
   826  0026                     ___awmod@sign:	
   827                           ; 1 bytes @ 0x6
   828                           
   829  0026                     ___awdiv@divisor:	
   830                           ; 1 bytes @ 0x6
   831                           
   832                           
   833                           ; 2 bytes @ 0x6
   834  0026                     	ds	1
   835  0027                     ??_configuracion:
   836  0027                     LCD_functionSet@dataL:	
   837                           ; 1 bytes @ 0x7
   838                           
   839                           
   840                           ; 1 bytes @ 0x7
   841  0027                     	ds	1
   842  0028                     ??_initLCD:
   843  0028                     UARTprintText@i:	
   844                           ; 1 bytes @ 0x8
   845                           
   846  0028                     LCDprintText@i:	
   847                           ; 1 bytes @ 0x8
   848                           
   849  0028                     ___awdiv@dividend:	
   850                           ; 1 bytes @ 0x8
   851                           
   852                           
   853                           ; 2 bytes @ 0x8
   854  0028                     	ds	2
   855  002A                     ??___awdiv:
   856                           
   857                           ; 1 bytes @ 0xA
   858  002A                     	ds	1
   859  002B                     ___awdiv@counter:
   860                           
   861                           ; 1 bytes @ 0xB
   862  002B                     	ds	1
   863  002C                     ___awdiv@sign:
   864                           
   865                           ; 1 bytes @ 0xC
   866  002C                     	ds	1
   867  002D                     ___awdiv@quotient:
   868                           
   869                           ; 2 bytes @ 0xD
   870  002D                     	ds	2
   871  002F                     ?_separar_numero:
   872  002F                     separar_numero@numero:	
   873                           ; 1 bytes @ 0xF
   874                           
   875                           
   876                           ; 2 bytes @ 0xF
   877  002F                     	ds	2
   878  0031                     separar_numero@centenas:
   879                           
   880                           ; 1 bytes @ 0x11
   881  0031                     	ds	1
   882  0032                     separar_numero@decenas:
   883                           
   884                           ; 1 bytes @ 0x12
   885  0032                     	ds	1
   886  0033                     separar_numero@unidades:
   887                           
   888                           ; 1 bytes @ 0x13
   889  0033                     	ds	1
   890  0034                     ??_separar_numero:
   891                           
   892                           ; 1 bytes @ 0x14
   893  0034                     	ds	1
   894  0035                     separar_numero@numaux2:
   895                           
   896                           ; 2 bytes @ 0x15
   897  0035                     	ds	2
   898  0037                     separar_numero@numaux:
   899                           
   900                           ; 2 bytes @ 0x17
   901  0037                     	ds	2
   902  0039                     ??_main:
   903                           
   904                           ; 1 bytes @ 0x19
   905  0039                     	ds	5
   906  003E                     main@potTexto:
   907                           
   908                           ; 5 bytes @ 0x1E
   909  003E                     	ds	5
   910  0043                     main@contTexto:
   911                           
   912                           ; 4 bytes @ 0x23
   913  0043                     	ds	4
   914  0047                     main@tempTexto:
   915                           
   916                           ; 4 bytes @ 0x27
   917  0047                     	ds	4
   918                           
   919                           	psect	maintext
   920  001C                     __pmaintext:	
   921 ;;
   922 ;;Main: autosize = 0, tempsize = 5, incstack = 0, save=0
   923 ;;
   924 ;; *************** function _main *****************
   925 ;; Defined at:
   926 ;;		line 75 in file "PIC1P1main.c"
   927 ;; Parameters:    Size  Location     Type
   928 ;;		None
   929 ;; Auto vars:     Size  Location     Type
   930 ;;  potTexto        5   30[BANK0 ] unsigned char [5]
   931 ;;  tempTexto       4   39[BANK0 ] unsigned char [4]
   932 ;;  contTexto       4   35[BANK0 ] unsigned char [4]
   933 ;; Return value:  Size  Location     Type
   934 ;;                  1    wreg      void 
   935 ;; Registers used:
   936 ;;		wreg, fsr0l, fsr0h, status,2, status,0, btemp+1, pclath, cstack
   937 ;; Tracked objects:
   938 ;;		On entry : B00/0
   939 ;;		On exit  : 0/0
   940 ;;		Unchanged: 0/0
   941 ;; Data sizes:     COMMON   BANK0   BANK1   BANK3   BANK2
   942 ;;      Params:         0       0       0       0       0
   943 ;;      Locals:         0      13       0       0       0
   944 ;;      Temps:          0       5       0       0       0
   945 ;;      Totals:         0      18       0       0       0
   946 ;;Total ram usage:       18 bytes
   947 ;; Hardware stack levels required when called: 5
   948 ;; This function calls:
   949 ;;		_LCD_setDDRAM
   950 ;;		_LCD_wRAM
   951 ;;		_LCDprintText
   952 ;;		_SPIreadValue
   953 ;;		_SPIsendValue
   954 ;;		_UARTprintCharacter
   955 ;;		_UARTprintDigit
   956 ;;		_UARTprintText
   957 ;;		___awdiv
   958 ;;		___wmul
   959 ;;		_configuracion
   960 ;;		_initLCD
   961 ;;		_selectSlave
   962 ;;		_separar_numero
   963 ;; This function is called by:
   964 ;;		Startup code after reset
   965 ;; This function uses a non-reentrant model
   966 ;;
   967                           
   968                           
   969                           ;psect for function _main
   970  001C                     _main:
   971  001C                     l1851:	
   972                           ;incstack = 0
   973                           ; Regs used in _main: [wreg-fsr0h+status,2+status,0+btemp+1+pclath+cstack]
   974                           
   975                           
   976                           ;PIC1P1main.c: 76:     configuracion();
   977  001C  120A  118A  23B9  120A  118A  	fcall	_configuracion
   978                           
   979                           ;PIC1P1main.c: 77:     initLCD();
   980  0021  120A  118A  228B  120A  118A  	fcall	_initLCD
   981  0026                     l1853:
   982                           
   983                           ;PIC1P1main.c: 78:     LCDprintText("S1:   S2:  S3:");
   984  0026  3001               	movlw	(low ((STR_1-__stringbase)| (0+32768)))& (0+255)
   985  0027  1283               	bcf	3,5	;RP0=0, select bank0
   986  0028  1303               	bcf	3,6	;RP1=0, select bank0
   987  0029  00A4               	movwf	LCDprintText@texto
   988  002A  3080               	movlw	128
   989  002B  00A5               	movwf	LCDprintText@texto+1
   990  002C  120A  118A  246A  120A  118A  	fcall	_LCDprintText
   991  0031                     l1855:
   992                           
   993                           ;PIC1P1main.c: 81:         selectSlave(1);
   994  0031  3001               	movlw	1
   995  0032  120A  118A  249E  120A  118A  	fcall	_selectSlave
   996  0037                     l1857:
   997                           
   998                           ;PIC1P1main.c: 82:         SPIsendValue(0b11000011);
   999  0037  30C3               	movlw	195
  1000  0038  120A  118A  26AE  120A  118A  	fcall	_SPIsendValue
  1001  003D                     l1859:
  1002                           
  1003                           ;PIC1P1main.c: 83:         _delay((unsigned long)((200)*(8000000/4000000.0)));
  1004  003D  3084               	movlw	132
  1005  003E  1283               	bcf	3,5	;RP0=0, select bank0
  1006  003F  1303               	bcf	3,6	;RP1=0, select bank0
  1007  0040  00B9               	movwf	??_main
  1008  0041                     u797:
  1009  0041  0BB9               	decfsz	??_main,f
  1010  0042  2841               	goto	u797
  1011  0043  0000               	nop
  1012  0044                     l1861:
  1013                           
  1014                           ;PIC1P1main.c: 84:         SPIreadValue(&pot);
  1015  0044  306A               	movlw	(low (_pot| 0))& (0+255)
  1016  0045  120A  118A  264A  120A  118A  	fcall	_SPIreadValue
  1017  004A                     l1863:
  1018                           
  1019                           ;PIC1P1main.c: 86:         selectSlave(2);
  1020  004A  3002               	movlw	2
  1021  004B  120A  118A  249E  120A  118A  	fcall	_selectSlave
  1022  0050                     l1865:
  1023                           
  1024                           ;PIC1P1main.c: 87:         SPIsendValue(0b11000011);
  1025  0050  30C3               	movlw	195
  1026  0051  120A  118A  26AE  120A  118A  	fcall	_SPIsendValue
  1027  0056                     l1867:
  1028                           
  1029                           ;PIC1P1main.c: 88:         _delay((unsigned long)((200)*(8000000/4000000.0)));
  1030  0056  3084               	movlw	132
  1031  0057  1283               	bcf	3,5	;RP0=0, select bank0
  1032  0058  1303               	bcf	3,6	;RP1=0, select bank0
  1033  0059  00B9               	movwf	??_main
  1034  005A                     u807:
  1035  005A  0BB9               	decfsz	??_main,f
  1036  005B  285A               	goto	u807
  1037  005C  0000               	nop
  1038  005D                     l1869:
  1039                           
  1040                           ;PIC1P1main.c: 89:         SPIreadValue(&cont);
  1041  005D  3069               	movlw	(low (_cont| 0))& (0+255)
  1042  005E  120A  118A  264A  120A  118A  	fcall	_SPIreadValue
  1043  0063                     l1871:
  1044                           
  1045                           ;PIC1P1main.c: 91:         selectSlave(3);
  1046  0063  3003               	movlw	3
  1047  0064  120A  118A  249E  120A  118A  	fcall	_selectSlave
  1048  0069                     l1873:
  1049                           
  1050                           ;PIC1P1main.c: 92:         SPIsendValue(0b11000011);
  1051  0069  30C3               	movlw	195
  1052  006A  120A  118A  26AE  120A  118A  	fcall	_SPIsendValue
  1053  006F                     l1875:
  1054                           
  1055                           ;PIC1P1main.c: 93:         _delay((unsigned long)((200)*(8000000/4000000.0)));
  1056  006F  3084               	movlw	132
  1057  0070  1283               	bcf	3,5	;RP0=0, select bank0
  1058  0071  1303               	bcf	3,6	;RP1=0, select bank0
  1059  0072  00B9               	movwf	??_main
  1060  0073                     u817:
  1061  0073  0BB9               	decfsz	??_main,f
  1062  0074  2873               	goto	u817
  1063  0075  0000               	nop
  1064  0076                     l1877:
  1065                           
  1066                           ;PIC1P1main.c: 94:         SPIreadValue(&temp);
  1067  0076  3068               	movlw	(low (_temp| 0))& (0+255)
  1068  0077  120A  118A  264A  120A  118A  	fcall	_SPIreadValue
  1069  007C                     l1879:
  1070                           
  1071                           ;PIC1P1main.c: 96:         potS.mapeado = (100*pot)/51;
  1072  007C  3033               	movlw	51
  1073  007D  1283               	bcf	3,5	;RP0=0, select bank0
  1074  007E  1303               	bcf	3,6	;RP1=0, select bank0
  1075  007F  00A6               	movwf	___awdiv@divisor
  1076  0080  3000               	movlw	0
  1077  0081  00A7               	movwf	___awdiv@divisor+1
  1078  0082  086A               	movf	_pot,w
  1079  0083  00B9               	movwf	??_main
  1080  0084  01BA               	clrf	??_main+1
  1081  0085  0839               	movf	??_main,w
  1082  0086  00A0               	movwf	___wmul@multiplier
  1083  0087  083A               	movf	??_main+1,w
  1084  0088  00A1               	movwf	___wmul@multiplier+1
  1085  0089  3064               	movlw	100
  1086  008A  00A2               	movwf	___wmul@multiplicand
  1087  008B  3000               	movlw	0
  1088  008C  00A3               	movwf	___wmul@multiplicand+1
  1089  008D  120A  118A  24C6  120A  118A  	fcall	___wmul
  1090  0092  1283               	bcf	3,5	;RP0=0, select bank0
  1091  0093  1303               	bcf	3,6	;RP1=0, select bank0
  1092  0094  0821               	movf	?___wmul+1,w
  1093  0095  00A9               	movwf	___awdiv@dividend+1
  1094  0096  0820               	movf	?___wmul,w
  1095  0097  00A8               	movwf	___awdiv@dividend
  1096  0098  120A  118A  22F5  120A  118A  	fcall	___awdiv
  1097  009D  1283               	bcf	3,5	;RP0=0, select bank0
  1098  009E  1303               	bcf	3,6	;RP1=0, select bank0
  1099  009F  0827               	movf	?___awdiv+1,w
  1100  00A0  00E4               	movwf	_potS+1
  1101  00A1  0826               	movf	?___awdiv,w
  1102  00A2  00E3               	movwf	_potS
  1103  00A3                     l1881:
  1104                           
  1105                           ;PIC1P1main.c: 98:         separar_numero(potS.mapeado, &potS.centenas, &potS.decenas, &
      +                          potS.unidades);
  1106  00A3  0864               	movf	_potS+1,w
  1107  00A4  00B0               	movwf	separar_numero@numero+1
  1108  00A5  0863               	movf	_potS,w
  1109  00A6  00AF               	movwf	separar_numero@numero
  1110  00A7  3065               	movlw	(low ((_potS| 0+2)))& (0+255)
  1111  00A8  00B9               	movwf	??_main
  1112  00A9  0839               	movf	??_main,w
  1113  00AA  00B1               	movwf	separar_numero@centenas
  1114  00AB  3066               	movlw	(low ((_potS| 0+3)))& (0+255)
  1115  00AC  00BA               	movwf	??_main+1
  1116  00AD  083A               	movf	??_main+1,w
  1117  00AE  00B2               	movwf	separar_numero@decenas
  1118  00AF  3067               	movlw	(low ((_potS| 0+4)))& (0+255)
  1119  00B0  00BB               	movwf	??_main+2
  1120  00B1  083B               	movf	??_main+2,w
  1121  00B2  00B3               	movwf	separar_numero@unidades
  1122  00B3  120A  118A  220A  120A  118A  	fcall	_separar_numero
  1123  00B8                     l1883:
  1124                           
  1125                           ;PIC1P1main.c: 99:         separar_numero(cont,&contS.centenas,&contS.decenas,&contS.uni
      +                          dades);
  1126  00B8  1283               	bcf	3,5	;RP0=0, select bank0
  1127  00B9  1303               	bcf	3,6	;RP1=0, select bank0
  1128  00BA  0869               	movf	_cont,w
  1129  00BB  00B9               	movwf	??_main
  1130  00BC  01BA               	clrf	??_main+1
  1131  00BD  0839               	movf	??_main,w
  1132  00BE  00AF               	movwf	separar_numero@numero
  1133  00BF  083A               	movf	??_main+1,w
  1134  00C0  00B0               	movwf	separar_numero@numero+1
  1135  00C1  3060               	movlw	(low ((_contS| 0+2)))& (0+255)
  1136  00C2  00BB               	movwf	??_main+2
  1137  00C3  083B               	movf	??_main+2,w
  1138  00C4  00B1               	movwf	separar_numero@centenas
  1139  00C5  3061               	movlw	(low ((_contS| 0+3)))& (0+255)
  1140  00C6  00BC               	movwf	??_main+3
  1141  00C7  083C               	movf	??_main+3,w
  1142  00C8  00B2               	movwf	separar_numero@decenas
  1143  00C9  3062               	movlw	(low ((_contS| 0+4)))& (0+255)
  1144  00CA  00BD               	movwf	??_main+4
  1145  00CB  083D               	movf	??_main+4,w
  1146  00CC  00B3               	movwf	separar_numero@unidades
  1147  00CD  120A  118A  220A  120A  118A  	fcall	_separar_numero
  1148  00D2                     l1885:
  1149                           
  1150                           ;PIC1P1main.c: 100:         separar_numero(temp,&tempS.centenas,&tempS.decenas,&tempS.un
      +                          idades);
  1151  00D2  1283               	bcf	3,5	;RP0=0, select bank0
  1152  00D3  1303               	bcf	3,6	;RP1=0, select bank0
  1153  00D4  0868               	movf	_temp,w
  1154  00D5  00B9               	movwf	??_main
  1155  00D6  01BA               	clrf	??_main+1
  1156  00D7  0839               	movf	??_main,w
  1157  00D8  00AF               	movwf	separar_numero@numero
  1158  00D9  083A               	movf	??_main+1,w
  1159  00DA  00B0               	movwf	separar_numero@numero+1
  1160  00DB  305B               	movlw	(low ((_tempS| 0+2)))& (0+255)
  1161  00DC  00BB               	movwf	??_main+2
  1162  00DD  083B               	movf	??_main+2,w
  1163  00DE  00B1               	movwf	separar_numero@centenas
  1164  00DF  305C               	movlw	(low ((_tempS| 0+3)))& (0+255)
  1165  00E0  00BC               	movwf	??_main+3
  1166  00E1  083C               	movf	??_main+3,w
  1167  00E2  00B2               	movwf	separar_numero@decenas
  1168  00E3  305D               	movlw	(low ((_tempS| 0+4)))& (0+255)
  1169  00E4  00BD               	movwf	??_main+4
  1170  00E5  083D               	movf	??_main+4,w
  1171  00E6  00B3               	movwf	separar_numero@unidades
  1172  00E7  120A  118A  220A  120A  118A  	fcall	_separar_numero
  1173  00EC                     l1887:
  1174                           
  1175                           ;PIC1P1main.c: 102:         char potTexto[]={potS.centenas+48,'.',potS.decenas+48,potS.u
      +                          nidades+48,'\0'};
  1176  00EC  303E               	movlw	main@potTexto& (0+255)
  1177  00ED  0084               	movwf	4
  1178  00EE  3005               	movlw	5
  1179  00EF  00FF               	movwf	btemp+1
  1180  00F0                     u770:
  1181  00F0  1383               	bcf	3,7	;select IRP bank0
  1182  00F1  0180               	clrf	0
  1183  00F2  0A84               	incf	4,f
  1184  00F3  0BFF               	decfsz	btemp+1,f
  1185  00F4  28F0               	goto	u770
  1186  00F5                     l1889:
  1187  00F5  1283               	bcf	3,5	;RP0=0, select bank0
  1188  00F6  1303               	bcf	3,6	;RP1=0, select bank0
  1189  00F7  0865               	movf	_potS+2,w
  1190  00F8  3E30               	addlw	48
  1191  00F9  00B9               	movwf	??_main
  1192  00FA  0839               	movf	??_main,w
  1193  00FB  00BE               	movwf	main@potTexto
  1194  00FC                     l1891:
  1195  00FC  302E               	movlw	46
  1196  00FD  00B9               	movwf	??_main
  1197  00FE  0839               	movf	??_main,w
  1198  00FF  00BF               	movwf	main@potTexto+1
  1199  0100                     l1893:
  1200  0100  0866               	movf	_potS+3,w
  1201  0101  3E30               	addlw	48
  1202  0102  00B9               	movwf	??_main
  1203  0103  0839               	movf	??_main,w
  1204  0104  00C0               	movwf	main@potTexto+2
  1205  0105                     l1895:
  1206  0105  0867               	movf	_potS+4,w
  1207  0106  3E30               	addlw	48
  1208  0107  00B9               	movwf	??_main
  1209  0108  0839               	movf	??_main,w
  1210  0109  00C1               	movwf	main@potTexto+3
  1211  010A                     l1897:
  1212  010A  01C2               	clrf	main@potTexto+4
  1213  010B                     l1899:
  1214                           
  1215                           ;PIC1P1main.c: 103:         char contTexto[]={contS.centenas+48,contS.decenas+48,contS.u
      +                          nidades+48,'\0'};
  1216  010B  3000               	movlw	0
  1217  010C  00C6               	movwf	main@contTexto+3
  1218  010D  3000               	movlw	0
  1219  010E  00C5               	movwf	main@contTexto+2
  1220  010F  3000               	movlw	0
  1221  0110  00C4               	movwf	main@contTexto+1
  1222  0111  3000               	movlw	0
  1223  0112  00C3               	movwf	main@contTexto
  1224  0113                     l1901:
  1225  0113  0860               	movf	_contS+2,w
  1226  0114  3E30               	addlw	48
  1227  0115  00B9               	movwf	??_main
  1228  0116  0839               	movf	??_main,w
  1229  0117  00C3               	movwf	main@contTexto
  1230  0118                     l1903:
  1231  0118  0861               	movf	_contS+3,w
  1232  0119  3E30               	addlw	48
  1233  011A  00B9               	movwf	??_main
  1234  011B  0839               	movf	??_main,w
  1235  011C  00C4               	movwf	main@contTexto+1
  1236  011D                     l1905:
  1237  011D  0862               	movf	_contS+4,w
  1238  011E  3E30               	addlw	48
  1239  011F  00B9               	movwf	??_main
  1240  0120  0839               	movf	??_main,w
  1241  0121  00C5               	movwf	main@contTexto+2
  1242  0122                     l1907:
  1243  0122  01C6               	clrf	main@contTexto+3
  1244  0123                     l1909:
  1245                           
  1246                           ;PIC1P1main.c: 104:         char tempTexto[]={tempS.centenas+48,tempS.decenas+48,tempS.u
      +                          nidades+48,'\0'};
  1247  0123  3000               	movlw	0
  1248  0124  00CA               	movwf	main@tempTexto+3
  1249  0125  3000               	movlw	0
  1250  0126  00C9               	movwf	main@tempTexto+2
  1251  0127  3000               	movlw	0
  1252  0128  00C8               	movwf	main@tempTexto+1
  1253  0129  3000               	movlw	0
  1254  012A  00C7               	movwf	main@tempTexto
  1255  012B                     l1911:
  1256  012B  085B               	movf	_tempS+2,w
  1257  012C  3E30               	addlw	48
  1258  012D  00B9               	movwf	??_main
  1259  012E  0839               	movf	??_main,w
  1260  012F  00C7               	movwf	main@tempTexto
  1261  0130                     l1913:
  1262  0130  085C               	movf	_tempS+3,w
  1263  0131  3E30               	addlw	48
  1264  0132  00B9               	movwf	??_main
  1265  0133  0839               	movf	??_main,w
  1266  0134  00C8               	movwf	main@tempTexto+1
  1267  0135                     l1915:
  1268  0135  085D               	movf	_tempS+4,w
  1269  0136  3E30               	addlw	48
  1270  0137  00B9               	movwf	??_main
  1271  0138  0839               	movf	??_main,w
  1272  0139  00C9               	movwf	main@tempTexto+2
  1273  013A                     l1917:
  1274  013A  01CA               	clrf	main@tempTexto+3
  1275  013B                     l1919:
  1276                           
  1277                           ;PIC1P1main.c: 107:         LCD_setDDRAM(0b1000000);
  1278  013B  3040               	movlw	64
  1279  013C  120A  118A  2621  120A  118A  	fcall	_LCD_setDDRAM
  1280  0141                     l1921:
  1281                           
  1282                           ;PIC1P1main.c: 108:         LCDprintText(potTexto);
  1283  0141  303E               	movlw	(low (main@potTexto| 0))& (0+255)
  1284  0142  1283               	bcf	3,5	;RP0=0, select bank0
  1285  0143  1303               	bcf	3,6	;RP1=0, select bank0
  1286  0144  00A4               	movwf	LCDprintText@texto
  1287  0145  3000               	movlw	0
  1288  0146  00A5               	movwf	LCDprintText@texto+1
  1289  0147  120A  118A  246A  120A  118A  	fcall	_LCDprintText
  1290  014C                     l1923:
  1291                           
  1292                           ;PIC1P1main.c: 109:         LCD_wRAM('v');
  1293  014C  3076               	movlw	118
  1294  014D  120A  118A  2636  120A  118A  	fcall	_LCD_wRAM
  1295  0152                     l1925:
  1296                           
  1297                           ;PIC1P1main.c: 110:         LCD_wRAM(' ');
  1298  0152  3020               	movlw	32
  1299  0153  120A  118A  2636  120A  118A  	fcall	_LCD_wRAM
  1300  0158                     l1927:
  1301                           
  1302                           ;PIC1P1main.c: 111:         LCDprintText(contTexto);
  1303  0158  3043               	movlw	(low (main@contTexto| 0))& (0+255)
  1304  0159  1283               	bcf	3,5	;RP0=0, select bank0
  1305  015A  1303               	bcf	3,6	;RP1=0, select bank0
  1306  015B  00A4               	movwf	LCDprintText@texto
  1307  015C  3000               	movlw	0
  1308  015D  00A5               	movwf	LCDprintText@texto+1
  1309  015E  120A  118A  246A  120A  118A  	fcall	_LCDprintText
  1310  0163                     l1929:
  1311                           
  1312                           ;PIC1P1main.c: 112:         LCDprintText("  ");
  1313  0163  3010               	movlw	(low ((STR_2-__stringbase)| (0+32768)))& (0+255)
  1314  0164  1283               	bcf	3,5	;RP0=0, select bank0
  1315  0165  1303               	bcf	3,6	;RP1=0, select bank0
  1316  0166  00A4               	movwf	LCDprintText@texto
  1317  0167  3080               	movlw	128
  1318  0168  00A5               	movwf	LCDprintText@texto+1
  1319  0169  120A  118A  246A  120A  118A  	fcall	_LCDprintText
  1320  016E                     l1931:
  1321                           
  1322                           ;PIC1P1main.c: 113:         LCDprintText(tempTexto);
  1323  016E  3047               	movlw	(low (main@tempTexto| 0))& (0+255)
  1324  016F  1283               	bcf	3,5	;RP0=0, select bank0
  1325  0170  1303               	bcf	3,6	;RP1=0, select bank0
  1326  0171  00A4               	movwf	LCDprintText@texto
  1327  0172  3000               	movlw	0
  1328  0173  00A5               	movwf	LCDprintText@texto+1
  1329  0174  120A  118A  246A  120A  118A  	fcall	_LCDprintText
  1330  0179                     l1933:
  1331                           
  1332                           ;PIC1P1main.c: 114:         LCD_wRAM('C');
  1333  0179  3043               	movlw	67
  1334  017A  120A  118A  2636  120A  118A  	fcall	_LCD_wRAM
  1335  017F                     l1935:
  1336                           
  1337                           ;PIC1P1main.c: 116:         if(comunicacion){
  1338  017F  1283               	bcf	3,5	;RP0=0, select bank0
  1339  0180  1303               	bcf	3,6	;RP1=0, select bank0
  1340  0181  0858               	movf	_comunicacion,w
  1341  0182  1903               	btfsc	3,2
  1342  0183  2985               	goto	u781
  1343  0184  2986               	goto	u780
  1344  0185                     u781:
  1345  0185  2831               	goto	l1855
  1346  0186                     u780:
  1347  0186                     l1937:
  1348                           
  1349                           ;PIC1P1main.c: 118:             UARTprintText("S1:   S2:  S3:");
  1350  0186  3001               	movlw	(low ((STR_1-__stringbase)| (0+32768)))& (0+255)
  1351  0187  00A4               	movwf	UARTprintText@texto
  1352  0188  3080               	movlw	128
  1353  0189  00A5               	movwf	UARTprintText@texto+1
  1354  018A  120A  118A  2436  120A  118A  	fcall	_UARTprintText
  1355  018F                     l1939:
  1356                           
  1357                           ;PIC1P1main.c: 119:             UARTprintCharacter(13);
  1358  018F  300D               	movlw	13
  1359  0190  120A  118A  268A  120A  118A  	fcall	_UARTprintCharacter
  1360  0195                     l1941:
  1361                           
  1362                           ;PIC1P1main.c: 121:             UARTprintText(potTexto);
  1363  0195  303E               	movlw	(low (main@potTexto| 0))& (0+255)
  1364  0196  1283               	bcf	3,5	;RP0=0, select bank0
  1365  0197  1303               	bcf	3,6	;RP1=0, select bank0
  1366  0198  00A4               	movwf	UARTprintText@texto
  1367  0199  3000               	movlw	0
  1368  019A  00A5               	movwf	UARTprintText@texto+1
  1369  019B  120A  118A  2436  120A  118A  	fcall	_UARTprintText
  1370                           
  1371                           ;PIC1P1main.c: 122:             UARTprintCharacter('v');
  1372  01A0  3076               	movlw	118
  1373  01A1  120A  118A  268A  120A  118A  	fcall	_UARTprintCharacter
  1374                           
  1375                           ;PIC1P1main.c: 124:             UARTprintCharacter(' ');
  1376  01A6  3020               	movlw	32
  1377  01A7  120A  118A  268A  120A  118A  	fcall	_UARTprintCharacter
  1378  01AC                     l1943:
  1379                           
  1380                           ;PIC1P1main.c: 125:             UARTprintText(contTexto);
  1381  01AC  3043               	movlw	(low (main@contTexto| 0))& (0+255)
  1382  01AD  1283               	bcf	3,5	;RP0=0, select bank0
  1383  01AE  1303               	bcf	3,6	;RP1=0, select bank0
  1384  01AF  00A4               	movwf	UARTprintText@texto
  1385  01B0  3000               	movlw	0
  1386  01B1  00A5               	movwf	UARTprintText@texto+1
  1387  01B2  120A  118A  2436  120A  118A  	fcall	_UARTprintText
  1388  01B7                     l1945:
  1389                           
  1390                           ;PIC1P1main.c: 127:             UARTprintText("  ");
  1391  01B7  3010               	movlw	(low ((STR_2-__stringbase)| (0+32768)))& (0+255)
  1392  01B8  1283               	bcf	3,5	;RP0=0, select bank0
  1393  01B9  1303               	bcf	3,6	;RP1=0, select bank0
  1394  01BA  00A4               	movwf	UARTprintText@texto
  1395  01BB  3080               	movlw	128
  1396  01BC  00A5               	movwf	UARTprintText@texto+1
  1397  01BD  120A  118A  2436  120A  118A  	fcall	_UARTprintText
  1398  01C2                     l1947:
  1399                           
  1400                           ;PIC1P1main.c: 128:             UARTprintText(tempTexto);
  1401  01C2  3047               	movlw	(low (main@tempTexto| 0))& (0+255)
  1402  01C3  1283               	bcf	3,5	;RP0=0, select bank0
  1403  01C4  1303               	bcf	3,6	;RP1=0, select bank0
  1404  01C5  00A4               	movwf	UARTprintText@texto
  1405  01C6  3000               	movlw	0
  1406  01C7  00A5               	movwf	UARTprintText@texto+1
  1407  01C8  120A  118A  2436  120A  118A  	fcall	_UARTprintText
  1408  01CD                     l1949:
  1409                           
  1410                           ;PIC1P1main.c: 129:             UARTprintCharacter('C');
  1411  01CD  3043               	movlw	67
  1412  01CE  120A  118A  268A  120A  118A  	fcall	_UARTprintCharacter
  1413  01D3                     l1951:
  1414                           
  1415                           ;PIC1P1main.c: 131:             UARTprintCharacter(13);
  1416  01D3  300D               	movlw	13
  1417  01D4  120A  118A  268A  120A  118A  	fcall	_UARTprintCharacter
  1418  01D9                     l1953:
  1419                           
  1420                           ;PIC1P1main.c: 132:             UARTprintCharacter(13);
  1421  01D9  300D               	movlw	13
  1422  01DA  120A  118A  268A  120A  118A  	fcall	_UARTprintCharacter
  1423  01DF                     l1955:
  1424                           
  1425                           ;PIC1P1main.c: 134:             UARTprintDigit(potS.centenas);
  1426  01DF  1283               	bcf	3,5	;RP0=0, select bank0
  1427  01E0  1303               	bcf	3,6	;RP1=0, select bank0
  1428  01E1  0865               	movf	_potS+2,w
  1429  01E2  120A  118A  266C  120A  118A  	fcall	_UARTprintDigit
  1430  01E7                     l1957:
  1431                           
  1432                           ;PIC1P1main.c: 135:             UARTprintDigit(potS.decenas);
  1433  01E7  1283               	bcf	3,5	;RP0=0, select bank0
  1434  01E8  1303               	bcf	3,6	;RP1=0, select bank0
  1435  01E9  0866               	movf	_potS+3,w
  1436  01EA  120A  118A  266C  120A  118A  	fcall	_UARTprintDigit
  1437  01EF                     l1959:
  1438                           
  1439                           ;PIC1P1main.c: 136:             UARTprintDigit(potS.unidades);
  1440  01EF  1283               	bcf	3,5	;RP0=0, select bank0
  1441  01F0  1303               	bcf	3,6	;RP1=0, select bank0
  1442  01F1  0867               	movf	_potS+4,w
  1443  01F2  120A  118A  266C  120A  118A  	fcall	_UARTprintDigit
  1444  01F7                     l1961:
  1445                           
  1446                           ;PIC1P1main.c: 138:             UARTprintCharacter(13);
  1447  01F7  300D               	movlw	13
  1448  01F8  120A  118A  268A  120A  118A  	fcall	_UARTprintCharacter
  1449  01FD                     l1963:
  1450                           
  1451                           ;PIC1P1main.c: 139:             UARTprintCharacter(13);
  1452  01FD  300D               	movlw	13
  1453  01FE  120A  118A  268A  120A  118A  	fcall	_UARTprintCharacter
  1454  0203                     l1965:
  1455                           
  1456                           ;PIC1P1main.c: 141:             comunicacion=0;
  1457  0203  1283               	bcf	3,5	;RP0=0, select bank0
  1458  0204  1303               	bcf	3,6	;RP1=0, select bank0
  1459  0205  01D8               	clrf	_comunicacion
  1460  0206  2831               	goto	l1855
  1461  0207  120A  118A  280C   	ljmp	start
  1462  020A                     __end_of_main:
  1463                           
  1464                           	psect	text1
  1465  020A                     __ptext1:	
  1466 ;; *************** function _separar_numero *****************
  1467 ;; Defined at:
  1468 ;;		line 199 in file "PIC1P1main.c"
  1469 ;; Parameters:    Size  Location     Type
  1470 ;;  numero          2   15[BANK0 ] int 
  1471 ;;  centenas        1   17[BANK0 ] PTR unsigned char 
  1472 ;;		 -> tempS(5), contS(5), potS(5), 
  1473 ;;  decenas         1   18[BANK0 ] PTR unsigned char 
  1474 ;;		 -> tempS(5), contS(5), potS(5), 
  1475 ;;  unidades        1   19[BANK0 ] PTR unsigned char 
  1476 ;;		 -> tempS(5), contS(5), potS(5), 
  1477 ;; Auto vars:     Size  Location     Type
  1478 ;;  numaux          2   23[BANK0 ] int 
  1479 ;;  numaux2         2   21[BANK0 ] int 
  1480 ;; Return value:  Size  Location     Type
  1481 ;;                  1    wreg      void 
  1482 ;; Registers used:
  1483 ;;		wreg, fsr0l, fsr0h, status,2, status,0, pclath, cstack
  1484 ;; Tracked objects:
  1485 ;;		On entry : 0/0
  1486 ;;		On exit  : 0/0
  1487 ;;		Unchanged: 0/0
  1488 ;; Data sizes:     COMMON   BANK0   BANK1   BANK3   BANK2
  1489 ;;      Params:         0       5       0       0       0
  1490 ;;      Locals:         0       4       0       0       0
  1491 ;;      Temps:          0       1       0       0       0
  1492 ;;      Totals:         0      10       0       0       0
  1493 ;;Total ram usage:       10 bytes
  1494 ;; Hardware stack levels used: 1
  1495 ;; Hardware stack levels required when called: 3
  1496 ;; This function calls:
  1497 ;;		___awdiv
  1498 ;;		___awmod
  1499 ;; This function is called by:
  1500 ;;		_main
  1501 ;; This function uses a non-reentrant model
  1502 ;;
  1503                           
  1504                           
  1505                           ;psect for function _separar_numero
  1506  020A                     _separar_numero:
  1507  020A                     l1793:	
  1508                           ;incstack = 0
  1509                           ; Regs used in _separar_numero: [wreg-fsr0h+status,2+status,0+pclath+cstack]
  1510                           
  1511                           
  1512                           ;PIC1P1main.c: 200:     int numaux,numaux2;;PIC1P1main.c: 201:     numaux = numero%100;
  1513  020A  3064               	movlw	100
  1514  020B  1283               	bcf	3,5	;RP0=0, select bank0
  1515  020C  1303               	bcf	3,6	;RP1=0, select bank0
  1516  020D  00A0               	movwf	___awmod@divisor
  1517  020E  3000               	movlw	0
  1518  020F  00A1               	movwf	___awmod@divisor+1
  1519  0210  0830               	movf	separar_numero@numero+1,w
  1520  0211  00A3               	movwf	___awmod@dividend+1
  1521  0212  082F               	movf	separar_numero@numero,w
  1522  0213  00A2               	movwf	___awmod@dividend
  1523  0214  120A  118A  235E  120A  118A  	fcall	___awmod
  1524  0219  1283               	bcf	3,5	;RP0=0, select bank0
  1525  021A  1303               	bcf	3,6	;RP1=0, select bank0
  1526  021B  0821               	movf	?___awmod+1,w
  1527  021C  00B8               	movwf	separar_numero@numaux+1
  1528  021D  0820               	movf	?___awmod,w
  1529  021E  00B7               	movwf	separar_numero@numaux
  1530  021F                     l1795:
  1531                           
  1532                           ;PIC1P1main.c: 202:     if(numero == numaux){
  1533  021F  0838               	movf	separar_numero@numaux+1,w
  1534  0220  0630               	xorwf	separar_numero@numero+1,w
  1535  0221  1D03               	skipz
  1536  0222  2A25               	goto	u685
  1537  0223  0837               	movf	separar_numero@numaux,w
  1538  0224  062F               	xorwf	separar_numero@numero,w
  1539  0225                     u685:
  1540  0225  1D03               	skipz
  1541  0226  2A28               	goto	u681
  1542  0227  2A29               	goto	u680
  1543  0228                     u681:
  1544  0228  2A2E               	goto	l1799
  1545  0229                     u680:
  1546  0229                     l1797:
  1547                           
  1548                           ;PIC1P1main.c: 203:         *centenas = 0;
  1549  0229  0831               	movf	separar_numero@centenas,w
  1550  022A  0084               	movwf	4
  1551  022B  1383               	bcf	3,7	;select IRP bank0
  1552  022C  0180               	clrf	0
  1553                           
  1554                           ;PIC1P1main.c: 204:     }else{
  1555  022D  2A48               	goto	l1801
  1556  022E                     l1799:
  1557                           
  1558                           ;PIC1P1main.c: 205:         *centenas = (numero - numaux)/100;
  1559  022E  3064               	movlw	100
  1560  022F  00A6               	movwf	___awdiv@divisor
  1561  0230  3000               	movlw	0
  1562  0231  00A7               	movwf	___awdiv@divisor+1
  1563  0232  0837               	movf	separar_numero@numaux,w
  1564  0233  022F               	subwf	separar_numero@numero,w
  1565  0234  00A8               	movwf	___awdiv@dividend
  1566  0235  0838               	movf	separar_numero@numaux+1,w
  1567  0236  1C03               	skipc
  1568  0237  0A38               	incf	separar_numero@numaux+1,w
  1569  0238  0230               	subwf	separar_numero@numero+1,w
  1570  0239  00A9               	movwf	___awdiv@dividend+1
  1571  023A  120A  118A  22F5  120A  118A  	fcall	___awdiv
  1572  023F  1283               	bcf	3,5	;RP0=0, select bank0
  1573  0240  1303               	bcf	3,6	;RP1=0, select bank0
  1574  0241  0826               	movf	?___awdiv,w
  1575  0242  00B4               	movwf	??_separar_numero
  1576  0243  0831               	movf	separar_numero@centenas,w
  1577  0244  0084               	movwf	4
  1578  0245  0834               	movf	??_separar_numero,w
  1579  0246  1383               	bcf	3,7	;select IRP bank0
  1580  0247  0080               	movwf	0
  1581  0248                     l1801:
  1582                           
  1583                           ;PIC1P1main.c: 207:     numaux2 = numaux%10;
  1584  0248  300A               	movlw	10
  1585  0249  00A0               	movwf	___awmod@divisor
  1586  024A  3000               	movlw	0
  1587  024B  00A1               	movwf	___awmod@divisor+1
  1588  024C  0838               	movf	separar_numero@numaux+1,w
  1589  024D  00A3               	movwf	___awmod@dividend+1
  1590  024E  0837               	movf	separar_numero@numaux,w
  1591  024F  00A2               	movwf	___awmod@dividend
  1592  0250  120A  118A  235E  120A  118A  	fcall	___awmod
  1593  0255  1283               	bcf	3,5	;RP0=0, select bank0
  1594  0256  1303               	bcf	3,6	;RP1=0, select bank0
  1595  0257  0821               	movf	?___awmod+1,w
  1596  0258  00B6               	movwf	separar_numero@numaux2+1
  1597  0259  0820               	movf	?___awmod,w
  1598  025A  00B5               	movwf	separar_numero@numaux2
  1599  025B                     l1803:
  1600                           
  1601                           ;PIC1P1main.c: 208:     if(numaux == numaux2){
  1602  025B  0836               	movf	separar_numero@numaux2+1,w
  1603  025C  0638               	xorwf	separar_numero@numaux+1,w
  1604  025D  1D03               	skipz
  1605  025E  2A61               	goto	u695
  1606  025F  0835               	movf	separar_numero@numaux2,w
  1607  0260  0637               	xorwf	separar_numero@numaux,w
  1608  0261                     u695:
  1609  0261  1D03               	skipz
  1610  0262  2A64               	goto	u691
  1611  0263  2A65               	goto	u690
  1612  0264                     u691:
  1613  0264  2A6A               	goto	l1807
  1614  0265                     u690:
  1615  0265                     l1805:
  1616                           
  1617                           ;PIC1P1main.c: 209:         *decenas = 0;
  1618  0265  0832               	movf	separar_numero@decenas,w
  1619  0266  0084               	movwf	4
  1620  0267  1383               	bcf	3,7	;select IRP bank0
  1621  0268  0180               	clrf	0
  1622                           
  1623                           ;PIC1P1main.c: 210:     }else{
  1624  0269  2A84               	goto	l1809
  1625  026A                     l1807:
  1626                           
  1627                           ;PIC1P1main.c: 211:         *decenas = (numaux - numaux2)/10;
  1628  026A  300A               	movlw	10
  1629  026B  00A6               	movwf	___awdiv@divisor
  1630  026C  3000               	movlw	0
  1631  026D  00A7               	movwf	___awdiv@divisor+1
  1632  026E  0835               	movf	separar_numero@numaux2,w
  1633  026F  0237               	subwf	separar_numero@numaux,w
  1634  0270  00A8               	movwf	___awdiv@dividend
  1635  0271  0836               	movf	separar_numero@numaux2+1,w
  1636  0272  1C03               	skipc
  1637  0273  0A36               	incf	separar_numero@numaux2+1,w
  1638  0274  0238               	subwf	separar_numero@numaux+1,w
  1639  0275  00A9               	movwf	___awdiv@dividend+1
  1640  0276  120A  118A  22F5  120A  118A  	fcall	___awdiv
  1641  027B  1283               	bcf	3,5	;RP0=0, select bank0
  1642  027C  1303               	bcf	3,6	;RP1=0, select bank0
  1643  027D  0826               	movf	?___awdiv,w
  1644  027E  00B4               	movwf	??_separar_numero
  1645  027F  0832               	movf	separar_numero@decenas,w
  1646  0280  0084               	movwf	4
  1647  0281  0834               	movf	??_separar_numero,w
  1648  0282  1383               	bcf	3,7	;select IRP bank0
  1649  0283  0080               	movwf	0
  1650  0284                     l1809:
  1651                           
  1652                           ;PIC1P1main.c: 213:     *unidades = numaux2;
  1653  0284  0835               	movf	separar_numero@numaux2,w
  1654  0285  00B4               	movwf	??_separar_numero
  1655  0286  0833               	movf	separar_numero@unidades,w
  1656  0287  0084               	movwf	4
  1657  0288  0834               	movf	??_separar_numero,w
  1658  0289  0080               	movwf	0
  1659  028A                     l115:
  1660  028A  0008               	return
  1661  028B                     __end_of_separar_numero:
  1662                           
  1663                           	psect	text2
  1664  035E                     __ptext2:	
  1665 ;; *************** function ___awmod *****************
  1666 ;; Defined at:
  1667 ;;		line 5 in file "C:\Program Files\Microchip\xc8\v2.32\pic\sources\c90\common\awmod.c"
  1668 ;; Parameters:    Size  Location     Type
  1669 ;;  divisor         2    0[BANK0 ] int 
  1670 ;;  dividend        2    2[BANK0 ] int 
  1671 ;; Auto vars:     Size  Location     Type
  1672 ;;  sign            1    6[BANK0 ] unsigned char 
  1673 ;;  counter         1    5[BANK0 ] unsigned char 
  1674 ;; Return value:  Size  Location     Type
  1675 ;;                  2    0[BANK0 ] int 
  1676 ;; Registers used:
  1677 ;;		wreg, status,2, status,0
  1678 ;; Tracked objects:
  1679 ;;		On entry : 0/0
  1680 ;;		On exit  : 0/0
  1681 ;;		Unchanged: 0/0
  1682 ;; Data sizes:     COMMON   BANK0   BANK1   BANK3   BANK2
  1683 ;;      Params:         0       4       0       0       0
  1684 ;;      Locals:         0       2       0       0       0
  1685 ;;      Temps:          0       1       0       0       0
  1686 ;;      Totals:         0       7       0       0       0
  1687 ;;Total ram usage:        7 bytes
  1688 ;; Hardware stack levels used: 1
  1689 ;; Hardware stack levels required when called: 2
  1690 ;; This function calls:
  1691 ;;		Nothing
  1692 ;; This function is called by:
  1693 ;;		_separar_numero
  1694 ;; This function uses a non-reentrant model
  1695 ;;
  1696                           
  1697                           
  1698                           ;psect for function ___awmod
  1699  035E                     ___awmod:
  1700  035E                     l1675:	
  1701                           ;incstack = 0
  1702                           ; Regs used in ___awmod: [wreg+status,2+status,0]
  1703                           
  1704  035E  1283               	bcf	3,5	;RP0=0, select bank0
  1705  035F  1303               	bcf	3,6	;RP1=0, select bank0
  1706  0360  01A6               	clrf	___awmod@sign
  1707  0361                     l1677:
  1708  0361  1FA3               	btfss	___awmod@dividend+1,7
  1709  0362  2B64               	goto	u581
  1710  0363  2B65               	goto	u580
  1711  0364                     u581:
  1712  0364  2B6C               	goto	l1683
  1713  0365                     u580:
  1714  0365                     l1679:
  1715  0365  09A2               	comf	___awmod@dividend,f
  1716  0366  09A3               	comf	___awmod@dividend+1,f
  1717  0367  0AA2               	incf	___awmod@dividend,f
  1718  0368  1903               	skipnz
  1719  0369  0AA3               	incf	___awmod@dividend+1,f
  1720  036A                     l1681:
  1721  036A  01A6               	clrf	___awmod@sign
  1722  036B  0AA6               	incf	___awmod@sign,f
  1723  036C                     l1683:
  1724  036C  1FA1               	btfss	___awmod@divisor+1,7
  1725  036D  2B6F               	goto	u591
  1726  036E  2B70               	goto	u590
  1727  036F                     u591:
  1728  036F  2B75               	goto	l1687
  1729  0370                     u590:
  1730  0370                     l1685:
  1731  0370  09A0               	comf	___awmod@divisor,f
  1732  0371  09A1               	comf	___awmod@divisor+1,f
  1733  0372  0AA0               	incf	___awmod@divisor,f
  1734  0373  1903               	skipnz
  1735  0374  0AA1               	incf	___awmod@divisor+1,f
  1736  0375                     l1687:
  1737  0375  0820               	movf	___awmod@divisor,w
  1738  0376  0421               	iorwf	___awmod@divisor+1,w
  1739  0377  1903               	btfsc	3,2
  1740  0378  2B7A               	goto	u601
  1741  0379  2B7B               	goto	u600
  1742  037A                     u601:
  1743  037A  2BAA               	goto	l1705
  1744  037B                     u600:
  1745  037B                     l1689:
  1746  037B  01A5               	clrf	___awmod@counter
  1747  037C  0AA5               	incf	___awmod@counter,f
  1748  037D  2B89               	goto	l1695
  1749  037E                     l1691:
  1750  037E  3001               	movlw	1
  1751  037F                     u615:
  1752  037F  1003               	clrc
  1753  0380  0DA0               	rlf	___awmod@divisor,f
  1754  0381  0DA1               	rlf	___awmod@divisor+1,f
  1755  0382  3EFF               	addlw	-1
  1756  0383  1D03               	skipz
  1757  0384  2B7F               	goto	u615
  1758  0385                     l1693:
  1759  0385  3001               	movlw	1
  1760  0386  00A4               	movwf	??___awmod
  1761  0387  0824               	movf	??___awmod,w
  1762  0388  07A5               	addwf	___awmod@counter,f
  1763  0389                     l1695:
  1764  0389  1FA1               	btfss	___awmod@divisor+1,7
  1765  038A  2B8C               	goto	u621
  1766  038B  2B8D               	goto	u620
  1767  038C                     u621:
  1768  038C  2B7E               	goto	l1691
  1769  038D                     u620:
  1770  038D                     l1697:
  1771  038D  0821               	movf	___awmod@divisor+1,w
  1772  038E  0223               	subwf	___awmod@dividend+1,w
  1773  038F  1D03               	skipz
  1774  0390  2B93               	goto	u635
  1775  0391  0820               	movf	___awmod@divisor,w
  1776  0392  0222               	subwf	___awmod@dividend,w
  1777  0393                     u635:
  1778  0393  1C03               	skipc
  1779  0394  2B96               	goto	u631
  1780  0395  2B97               	goto	u630
  1781  0396                     u631:
  1782  0396  2B9D               	goto	l1701
  1783  0397                     u630:
  1784  0397                     l1699:
  1785  0397  0820               	movf	___awmod@divisor,w
  1786  0398  02A2               	subwf	___awmod@dividend,f
  1787  0399  0821               	movf	___awmod@divisor+1,w
  1788  039A  1C03               	skipc
  1789  039B  03A3               	decf	___awmod@dividend+1,f
  1790  039C  02A3               	subwf	___awmod@dividend+1,f
  1791  039D                     l1701:
  1792  039D  3001               	movlw	1
  1793  039E                     u645:
  1794  039E  1003               	clrc
  1795  039F  0CA1               	rrf	___awmod@divisor+1,f
  1796  03A0  0CA0               	rrf	___awmod@divisor,f
  1797  03A1  3EFF               	addlw	-1
  1798  03A2  1D03               	skipz
  1799  03A3  2B9E               	goto	u645
  1800  03A4                     l1703:
  1801  03A4  3001               	movlw	1
  1802  03A5  02A5               	subwf	___awmod@counter,f
  1803  03A6  1D03               	btfss	3,2
  1804  03A7  2BA9               	goto	u651
  1805  03A8  2BAA               	goto	u650
  1806  03A9                     u651:
  1807  03A9  2B8D               	goto	l1697
  1808  03AA                     u650:
  1809  03AA                     l1705:
  1810  03AA  0826               	movf	___awmod@sign,w
  1811  03AB  1903               	btfsc	3,2
  1812  03AC  2BAE               	goto	u661
  1813  03AD  2BAF               	goto	u660
  1814  03AE                     u661:
  1815  03AE  2BB4               	goto	l1709
  1816  03AF                     u660:
  1817  03AF                     l1707:
  1818  03AF  09A2               	comf	___awmod@dividend,f
  1819  03B0  09A3               	comf	___awmod@dividend+1,f
  1820  03B1  0AA2               	incf	___awmod@dividend,f
  1821  03B2  1903               	skipnz
  1822  03B3  0AA3               	incf	___awmod@dividend+1,f
  1823  03B4                     l1709:
  1824  03B4  0823               	movf	___awmod@dividend+1,w
  1825  03B5  00A1               	movwf	?___awmod+1
  1826  03B6  0822               	movf	___awmod@dividend,w
  1827  03B7  00A0               	movwf	?___awmod
  1828  03B8                     l595:
  1829  03B8  0008               	return
  1830  03B9                     __end_of___awmod:
  1831                           
  1832                           	psect	text3
  1833  02F5                     __ptext3:	
  1834 ;; *************** function ___awdiv *****************
  1835 ;; Defined at:
  1836 ;;		line 5 in file "C:\Program Files\Microchip\xc8\v2.32\pic\sources\c90\common\awdiv.c"
  1837 ;; Parameters:    Size  Location     Type
  1838 ;;  divisor         2    6[BANK0 ] int 
  1839 ;;  dividend        2    8[BANK0 ] int 
  1840 ;; Auto vars:     Size  Location     Type
  1841 ;;  quotient        2   13[BANK0 ] int 
  1842 ;;  sign            1   12[BANK0 ] unsigned char 
  1843 ;;  counter         1   11[BANK0 ] unsigned char 
  1844 ;; Return value:  Size  Location     Type
  1845 ;;                  2    6[BANK0 ] int 
  1846 ;; Registers used:
  1847 ;;		wreg, status,2, status,0
  1848 ;; Tracked objects:
  1849 ;;		On entry : 0/0
  1850 ;;		On exit  : 0/0
  1851 ;;		Unchanged: 0/0
  1852 ;; Data sizes:     COMMON   BANK0   BANK1   BANK3   BANK2
  1853 ;;      Params:         0       4       0       0       0
  1854 ;;      Locals:         0       4       0       0       0
  1855 ;;      Temps:          0       1       0       0       0
  1856 ;;      Totals:         0       9       0       0       0
  1857 ;;Total ram usage:        9 bytes
  1858 ;; Hardware stack levels used: 1
  1859 ;; Hardware stack levels required when called: 2
  1860 ;; This function calls:
  1861 ;;		Nothing
  1862 ;; This function is called by:
  1863 ;;		_main
  1864 ;;		_separar_numero
  1865 ;; This function uses a non-reentrant model
  1866 ;;
  1867                           
  1868                           
  1869                           ;psect for function ___awdiv
  1870  02F5                     ___awdiv:
  1871  02F5                     l1631:	
  1872                           ;incstack = 0
  1873                           ; Regs used in ___awdiv: [wreg+status,2+status,0]
  1874                           
  1875  02F5  1283               	bcf	3,5	;RP0=0, select bank0
  1876  02F6  1303               	bcf	3,6	;RP1=0, select bank0
  1877  02F7  01AC               	clrf	___awdiv@sign
  1878  02F8                     l1633:
  1879  02F8  1FA7               	btfss	___awdiv@divisor+1,7
  1880  02F9  2AFB               	goto	u481
  1881  02FA  2AFC               	goto	u480
  1882  02FB                     u481:
  1883  02FB  2B03               	goto	l1639
  1884  02FC                     u480:
  1885  02FC                     l1635:
  1886  02FC  09A6               	comf	___awdiv@divisor,f
  1887  02FD  09A7               	comf	___awdiv@divisor+1,f
  1888  02FE  0AA6               	incf	___awdiv@divisor,f
  1889  02FF  1903               	skipnz
  1890  0300  0AA7               	incf	___awdiv@divisor+1,f
  1891  0301                     l1637:
  1892  0301  01AC               	clrf	___awdiv@sign
  1893  0302  0AAC               	incf	___awdiv@sign,f
  1894  0303                     l1639:
  1895  0303  1FA9               	btfss	___awdiv@dividend+1,7
  1896  0304  2B06               	goto	u491
  1897  0305  2B07               	goto	u490
  1898  0306                     u491:
  1899  0306  2B10               	goto	l1645
  1900  0307                     u490:
  1901  0307                     l1641:
  1902  0307  09A8               	comf	___awdiv@dividend,f
  1903  0308  09A9               	comf	___awdiv@dividend+1,f
  1904  0309  0AA8               	incf	___awdiv@dividend,f
  1905  030A  1903               	skipnz
  1906  030B  0AA9               	incf	___awdiv@dividend+1,f
  1907  030C                     l1643:
  1908  030C  3001               	movlw	1
  1909  030D  00AA               	movwf	??___awdiv
  1910  030E  082A               	movf	??___awdiv,w
  1911  030F  06AC               	xorwf	___awdiv@sign,f
  1912  0310                     l1645:
  1913  0310  01AD               	clrf	___awdiv@quotient
  1914  0311  01AE               	clrf	___awdiv@quotient+1
  1915  0312                     l1647:
  1916  0312  0826               	movf	___awdiv@divisor,w
  1917  0313  0427               	iorwf	___awdiv@divisor+1,w
  1918  0314  1903               	btfsc	3,2
  1919  0315  2B17               	goto	u501
  1920  0316  2B18               	goto	u500
  1921  0317                     u501:
  1922  0317  2B4F               	goto	l1667
  1923  0318                     u500:
  1924  0318                     l1649:
  1925  0318  01AB               	clrf	___awdiv@counter
  1926  0319  0AAB               	incf	___awdiv@counter,f
  1927  031A  2B26               	goto	l1655
  1928  031B                     l1651:
  1929  031B  3001               	movlw	1
  1930  031C                     u515:
  1931  031C  1003               	clrc
  1932  031D  0DA6               	rlf	___awdiv@divisor,f
  1933  031E  0DA7               	rlf	___awdiv@divisor+1,f
  1934  031F  3EFF               	addlw	-1
  1935  0320  1D03               	skipz
  1936  0321  2B1C               	goto	u515
  1937  0322                     l1653:
  1938  0322  3001               	movlw	1
  1939  0323  00AA               	movwf	??___awdiv
  1940  0324  082A               	movf	??___awdiv,w
  1941  0325  07AB               	addwf	___awdiv@counter,f
  1942  0326                     l1655:
  1943  0326  1FA7               	btfss	___awdiv@divisor+1,7
  1944  0327  2B29               	goto	u521
  1945  0328  2B2A               	goto	u520
  1946  0329                     u521:
  1947  0329  2B1B               	goto	l1651
  1948  032A                     u520:
  1949  032A                     l1657:
  1950  032A  3001               	movlw	1
  1951  032B                     u535:
  1952  032B  1003               	clrc
  1953  032C  0DAD               	rlf	___awdiv@quotient,f
  1954  032D  0DAE               	rlf	___awdiv@quotient+1,f
  1955  032E  3EFF               	addlw	-1
  1956  032F  1D03               	skipz
  1957  0330  2B2B               	goto	u535
  1958  0331  0827               	movf	___awdiv@divisor+1,w
  1959  0332  0229               	subwf	___awdiv@dividend+1,w
  1960  0333  1D03               	skipz
  1961  0334  2B37               	goto	u545
  1962  0335  0826               	movf	___awdiv@divisor,w
  1963  0336  0228               	subwf	___awdiv@dividend,w
  1964  0337                     u545:
  1965  0337  1C03               	skipc
  1966  0338  2B3A               	goto	u541
  1967  0339  2B3B               	goto	u540
  1968  033A                     u541:
  1969  033A  2B42               	goto	l1663
  1970  033B                     u540:
  1971  033B                     l1659:
  1972  033B  0826               	movf	___awdiv@divisor,w
  1973  033C  02A8               	subwf	___awdiv@dividend,f
  1974  033D  0827               	movf	___awdiv@divisor+1,w
  1975  033E  1C03               	skipc
  1976  033F  03A9               	decf	___awdiv@dividend+1,f
  1977  0340  02A9               	subwf	___awdiv@dividend+1,f
  1978  0341                     l1661:
  1979  0341  142D               	bsf	___awdiv@quotient,0
  1980  0342                     l1663:
  1981  0342  3001               	movlw	1
  1982  0343                     u555:
  1983  0343  1003               	clrc
  1984  0344  0CA7               	rrf	___awdiv@divisor+1,f
  1985  0345  0CA6               	rrf	___awdiv@divisor,f
  1986  0346  3EFF               	addlw	-1
  1987  0347  1D03               	skipz
  1988  0348  2B43               	goto	u555
  1989  0349                     l1665:
  1990  0349  3001               	movlw	1
  1991  034A  02AB               	subwf	___awdiv@counter,f
  1992  034B  1D03               	btfss	3,2
  1993  034C  2B4E               	goto	u561
  1994  034D  2B4F               	goto	u560
  1995  034E                     u561:
  1996  034E  2B2A               	goto	l1657
  1997  034F                     u560:
  1998  034F                     l1667:
  1999  034F  082C               	movf	___awdiv@sign,w
  2000  0350  1903               	btfsc	3,2
  2001  0351  2B53               	goto	u571
  2002  0352  2B54               	goto	u570
  2003  0353                     u571:
  2004  0353  2B59               	goto	l1671
  2005  0354                     u570:
  2006  0354                     l1669:
  2007  0354  09AD               	comf	___awdiv@quotient,f
  2008  0355  09AE               	comf	___awdiv@quotient+1,f
  2009  0356  0AAD               	incf	___awdiv@quotient,f
  2010  0357  1903               	skipnz
  2011  0358  0AAE               	incf	___awdiv@quotient+1,f
  2012  0359                     l1671:
  2013  0359  082E               	movf	___awdiv@quotient+1,w
  2014  035A  00A7               	movwf	?___awdiv+1
  2015  035B  082D               	movf	___awdiv@quotient,w
  2016  035C  00A6               	movwf	?___awdiv
  2017  035D                     l582:
  2018  035D  0008               	return
  2019  035E                     __end_of___awdiv:
  2020                           
  2021                           	psect	text4
  2022  049E                     __ptext4:	
  2023 ;; *************** function _selectSlave *****************
  2024 ;; Defined at:
  2025 ;;		line 216 in file "PIC1P1main.c"
  2026 ;; Parameters:    Size  Location     Type
  2027 ;;  slave           1    wreg     unsigned char 
  2028 ;; Auto vars:     Size  Location     Type
  2029 ;;  slave           1    2[BANK0 ] unsigned char 
  2030 ;; Return value:  Size  Location     Type
  2031 ;;                  1    wreg      void 
  2032 ;; Registers used:
  2033 ;;		wreg, fsr0l, fsr0h, status,2, status,0
  2034 ;; Tracked objects:
  2035 ;;		On entry : 0/0
  2036 ;;		On exit  : 0/0
  2037 ;;		Unchanged: 0/0
  2038 ;; Data sizes:     COMMON   BANK0   BANK1   BANK3   BANK2
  2039 ;;      Params:         0       0       0       0       0
  2040 ;;      Locals:         0       1       0       0       0
  2041 ;;      Temps:          0       2       0       0       0
  2042 ;;      Totals:         0       3       0       0       0
  2043 ;;Total ram usage:        3 bytes
  2044 ;; Hardware stack levels used: 1
  2045 ;; Hardware stack levels required when called: 2
  2046 ;; This function calls:
  2047 ;;		Nothing
  2048 ;; This function is called by:
  2049 ;;		_main
  2050 ;; This function uses a non-reentrant model
  2051 ;;
  2052                           
  2053                           
  2054                           ;psect for function _selectSlave
  2055  049E                     _selectSlave:
  2056                           
  2057                           ;incstack = 0
  2058                           ; Regs used in _selectSlave: [wreg-fsr0h+status,2+status,0]
  2059                           ;selectSlave@slave stored from wreg
  2060  049E  1283               	bcf	3,5	;RP0=0, select bank0
  2061  049F  1303               	bcf	3,6	;RP1=0, select bank0
  2062  04A0  00A2               	movwf	selectSlave@slave
  2063  04A1                     l1775:
  2064                           
  2065                           ;PIC1P1main.c: 217:     switch(slave){
  2066  04A1  2CB2               	goto	l1779
  2067  04A2                     l119:	
  2068                           ;PIC1P1main.c: 218:         case 1:
  2069                           
  2070                           
  2071                           ;PIC1P1main.c: 219:             PORTDbits.RD2=0;
  2072  04A2  1108               	bcf	8,2	;volatile
  2073                           
  2074                           ;PIC1P1main.c: 220:             PORTAbits.RA0=1;
  2075  04A3  1405               	bsf	5,0	;volatile
  2076                           
  2077                           ;PIC1P1main.c: 221:             PORTDbits.RD3=1;
  2078  04A4  1588               	bsf	8,3	;volatile
  2079                           
  2080                           ;PIC1P1main.c: 222:             break;
  2081  04A5  2CC5               	goto	l124
  2082  04A6                     l121:	
  2083                           ;PIC1P1main.c: 223:         case 2:
  2084                           
  2085                           
  2086                           ;PIC1P1main.c: 224:             PORTDbits.RD2=1;
  2087  04A6  1508               	bsf	8,2	;volatile
  2088                           
  2089                           ;PIC1P1main.c: 225:             PORTAbits.RA0=0;
  2090  04A7  1005               	bcf	5,0	;volatile
  2091                           
  2092                           ;PIC1P1main.c: 226:             PORTDbits.RD3=1;
  2093  04A8  1588               	bsf	8,3	;volatile
  2094                           
  2095                           ;PIC1P1main.c: 227:             break;
  2096  04A9  2CC5               	goto	l124
  2097  04AA                     l122:	
  2098                           ;PIC1P1main.c: 228:         case 3:
  2099                           
  2100                           
  2101                           ;PIC1P1main.c: 229:             PORTDbits.RD2=1;
  2102  04AA  1508               	bsf	8,2	;volatile
  2103                           
  2104                           ;PIC1P1main.c: 230:             PORTAbits.RA0=1;
  2105  04AB  1405               	bsf	5,0	;volatile
  2106                           
  2107                           ;PIC1P1main.c: 231:             PORTDbits.RD3=0;
  2108  04AC  1188               	bcf	8,3	;volatile
  2109                           
  2110                           ;PIC1P1main.c: 232:             break;
  2111  04AD  2CC5               	goto	l124
  2112  04AE                     l123:	
  2113                           ;PIC1P1main.c: 233:         default:
  2114                           
  2115                           
  2116                           ;PIC1P1main.c: 234:             PORTDbits.RD2=1;
  2117  04AE  1508               	bsf	8,2	;volatile
  2118                           
  2119                           ;PIC1P1main.c: 235:             PORTAbits.RA0=1;
  2120  04AF  1405               	bsf	5,0	;volatile
  2121                           
  2122                           ;PIC1P1main.c: 236:             PORTDbits.RD3=1;
  2123  04B0  1588               	bsf	8,3	;volatile
  2124                           
  2125                           ;PIC1P1main.c: 237:             break;
  2126  04B1  2CC5               	goto	l124
  2127  04B2                     l1779:
  2128  04B2  0822               	movf	selectSlave@slave,w
  2129  04B3  00A0               	movwf	??_selectSlave
  2130  04B4  01A1               	clrf	??_selectSlave+1
  2131                           
  2132                           ; Switch on 2 bytes has been partitioned into a top level switch of size 1, and 1 sub-sw
      +                          itches
  2133                           ; Switch size 1, requested type "simple"
  2134                           ; Number of cases is 1, Range of values is 0 to 0
  2135                           ; switch strategies available:
  2136                           ; Name         Instructions Cycles
  2137                           ; simple_byte            4     3 (average)
  2138                           ; direct_byte           11     8 (fixed)
  2139                           ; jumptable            260     6 (fixed)
  2140                           ;	Chosen strategy is simple_byte
  2141  04B5  0821               	movf	??_selectSlave+1,w
  2142  04B6  3A00               	xorlw	0	; case 0
  2143  04B7  1903               	skipnz
  2144  04B8  2CBA               	goto	l2011
  2145  04B9  2CAE               	goto	l123
  2146  04BA                     l2011:
  2147                           
  2148                           ; Switch size 1, requested type "simple"
  2149                           ; Number of cases is 3, Range of values is 1 to 3
  2150                           ; switch strategies available:
  2151                           ; Name         Instructions Cycles
  2152                           ; simple_byte           10     6 (average)
  2153                           ; direct_byte           20    11 (fixed)
  2154                           ; jumptable            263     9 (fixed)
  2155                           ;	Chosen strategy is simple_byte
  2156  04BA  0820               	movf	??_selectSlave,w
  2157  04BB  3A01               	xorlw	1	; case 1
  2158  04BC  1903               	skipnz
  2159  04BD  2CA2               	goto	l119
  2160  04BE  3A03               	xorlw	3	; case 2
  2161  04BF  1903               	skipnz
  2162  04C0  2CA6               	goto	l121
  2163  04C1  3A01               	xorlw	1	; case 3
  2164  04C2  1903               	skipnz
  2165  04C3  2CAA               	goto	l122
  2166  04C4  2CAE               	goto	l123
  2167  04C5                     l124:
  2168  04C5  0008               	return
  2169  04C6                     __end_of_selectSlave:
  2170                           
  2171                           	psect	text5
  2172  028B                     __ptext5:	
  2173 ;; *************** function _initLCD *****************
  2174 ;; Defined at:
  2175 ;;		line 117 in file "LCDcontrol.c"
  2176 ;; Parameters:    Size  Location     Type
  2177 ;;		None
  2178 ;; Auto vars:     Size  Location     Type
  2179 ;;		None
  2180 ;; Return value:  Size  Location     Type
  2181 ;;                  1    wreg      void 
  2182 ;; Registers used:
  2183 ;;		wreg, status,2, status,0, pclath, cstack
  2184 ;; Tracked objects:
  2185 ;;		On entry : 0/0
  2186 ;;		On exit  : 0/0
  2187 ;;		Unchanged: 0/0
  2188 ;; Data sizes:     COMMON   BANK0   BANK1   BANK3   BANK2
  2189 ;;      Params:         0       0       0       0       0
  2190 ;;      Locals:         0       0       0       0       0
  2191 ;;      Temps:          0       2       0       0       0
  2192 ;;      Totals:         0       2       0       0       0
  2193 ;;Total ram usage:        2 bytes
  2194 ;; Hardware stack levels used: 1
  2195 ;; Hardware stack levels required when called: 4
  2196 ;; This function calls:
  2197 ;;		_LCD_clearDisplay
  2198 ;;		_LCD_displayOnOff
  2199 ;;		_LCD_entryMode_set
  2200 ;;		_LCD_functionSet
  2201 ;; This function is called by:
  2202 ;;		_main
  2203 ;; This function uses a non-reentrant model
  2204 ;;
  2205                           
  2206                           
  2207                           ;psect for function _initLCD
  2208  028B                     _initLCD:
  2209  028B                     l1747:	
  2210                           ;incstack = 0
  2211                           ; Regs used in _initLCD: [wreg+status,2+status,0+pclath+cstack]
  2212                           
  2213                           
  2214                           ;LCDcontrol.c: 120:     _delay((unsigned long)((17)*(8000000/4000.0)));
  2215  028B  302D               	movlw	45
  2216  028C  1283               	bcf	3,5	;RP0=0, select bank0
  2217  028D  1303               	bcf	3,6	;RP1=0, select bank0
  2218  028E  00A9               	movwf	??_initLCD+1
  2219  028F  3025               	movlw	37
  2220  0290  00A8               	movwf	??_initLCD
  2221  0291                     u827:
  2222  0291  0BA8               	decfsz	??_initLCD,f
  2223  0292  2A91               	goto	u827
  2224  0293  0BA9               	decfsz	??_initLCD+1,f
  2225  0294  2A91               	goto	u827
  2226  0295  2A96               	nop2
  2227  0296                     l1749:
  2228                           
  2229                           ;LCDcontrol.c: 121:     LCD_functionSet(1,0,0);
  2230  0296  1283               	bcf	3,5	;RP0=0, select bank0
  2231  0297  1303               	bcf	3,6	;RP1=0, select bank0
  2232  0298  01A1               	clrf	LCD_functionSet@lineNo
  2233  0299  01A2               	clrf	LCD_functionSet@dispFont
  2234  029A  3001               	movlw	1
  2235  029B  120A  118A  2402  120A  118A  	fcall	_LCD_functionSet
  2236  02A0                     l1751:
  2237                           
  2238                           ;LCDcontrol.c: 122:     _delay((unsigned long)((5)*(8000000/4000.0)));
  2239  02A0  300D               	movlw	13
  2240  02A1  1283               	bcf	3,5	;RP0=0, select bank0
  2241  02A2  1303               	bcf	3,6	;RP1=0, select bank0
  2242  02A3  00A9               	movwf	??_initLCD+1
  2243  02A4  30FB               	movlw	251
  2244  02A5  00A8               	movwf	??_initLCD
  2245  02A6                     u837:
  2246  02A6  0BA8               	decfsz	??_initLCD,f
  2247  02A7  2AA6               	goto	u837
  2248  02A8  0BA9               	decfsz	??_initLCD+1,f
  2249  02A9  2AA6               	goto	u837
  2250                           
  2251                           ;LCDcontrol.c: 123:     LCD_functionSet(1,0,0);
  2252  02AA  1283               	bcf	3,5	;RP0=0, select bank0
  2253  02AB  1303               	bcf	3,6	;RP1=0, select bank0
  2254  02AC  01A1               	clrf	LCD_functionSet@lineNo
  2255  02AD  01A2               	clrf	LCD_functionSet@dispFont
  2256  02AE  3001               	movlw	1
  2257  02AF  120A  118A  2402  120A  118A  	fcall	_LCD_functionSet
  2258  02B4                     l1753:
  2259                           
  2260                           ;LCDcontrol.c: 124:     _delay((unsigned long)((110)*(8000000/4000000.0)));
  2261  02B4  3048               	movlw	72
  2262  02B5  1283               	bcf	3,5	;RP0=0, select bank0
  2263  02B6  1303               	bcf	3,6	;RP1=0, select bank0
  2264  02B7  00A8               	movwf	??_initLCD
  2265  02B8                     u847:
  2266  02B8  0BA8               	decfsz	??_initLCD,f
  2267  02B9  2AB8               	goto	u847
  2268  02BA  0000               	nop
  2269  02BB                     l1755:
  2270                           
  2271                           ;LCDcontrol.c: 125:     LCD_functionSet(1,0,0);
  2272  02BB  1283               	bcf	3,5	;RP0=0, select bank0
  2273  02BC  1303               	bcf	3,6	;RP1=0, select bank0
  2274  02BD  01A1               	clrf	LCD_functionSet@lineNo
  2275  02BE  01A2               	clrf	LCD_functionSet@dispFont
  2276  02BF  3001               	movlw	1
  2277  02C0  120A  118A  2402  120A  118A  	fcall	_LCD_functionSet
  2278  02C5                     l1757:
  2279                           
  2280                           ;LCDcontrol.c: 126:     LCD_functionSet(1,1,0);
  2281  02C5  1283               	bcf	3,5	;RP0=0, select bank0
  2282  02C6  1303               	bcf	3,6	;RP1=0, select bank0
  2283  02C7  01A1               	clrf	LCD_functionSet@lineNo
  2284  02C8  0AA1               	incf	LCD_functionSet@lineNo,f
  2285  02C9  01A2               	clrf	LCD_functionSet@dispFont
  2286  02CA  3001               	movlw	1
  2287  02CB  120A  118A  2402  120A  118A  	fcall	_LCD_functionSet
  2288  02D0                     l1759:
  2289                           
  2290                           ;LCDcontrol.c: 127:     LCD_displayOnOff(0,0,0);
  2291  02D0  1283               	bcf	3,5	;RP0=0, select bank0
  2292  02D1  1303               	bcf	3,6	;RP1=0, select bank0
  2293  02D2  01A1               	clrf	LCD_displayOnOff@cursor
  2294  02D3  01A2               	clrf	LCD_displayOnOff@blink
  2295  02D4  3000               	movlw	0
  2296  02D5  120A  118A  2512  120A  118A  	fcall	_LCD_displayOnOff
  2297  02DA                     l1761:
  2298                           
  2299                           ;LCDcontrol.c: 128:     LCD_clearDisplay();
  2300  02DA  120A  118A  260A  120A  118A  	fcall	_LCD_clearDisplay
  2301  02DF                     l1763:
  2302                           
  2303                           ;LCDcontrol.c: 129:     LCD_entryMode_set(1,0);
  2304  02DF  1283               	bcf	3,5	;RP0=0, select bank0
  2305  02E0  1303               	bcf	3,6	;RP1=0, select bank0
  2306  02E1  01A1               	clrf	LCD_entryMode_set@shift
  2307  02E2  3001               	movlw	1
  2308  02E3  120A  118A  257C  120A  118A  	fcall	_LCD_entryMode_set
  2309  02E8                     l1765:
  2310                           
  2311                           ;LCDcontrol.c: 130:     LCD_displayOnOff(1,1,1);
  2312  02E8  1283               	bcf	3,5	;RP0=0, select bank0
  2313  02E9  1303               	bcf	3,6	;RP1=0, select bank0
  2314  02EA  01A1               	clrf	LCD_displayOnOff@cursor
  2315  02EB  0AA1               	incf	LCD_displayOnOff@cursor,f
  2316  02EC  01A2               	clrf	LCD_displayOnOff@blink
  2317  02ED  0AA2               	incf	LCD_displayOnOff@blink,f
  2318  02EE  3001               	movlw	1
  2319  02EF  120A  118A  2512  120A  118A  	fcall	_LCD_displayOnOff
  2320  02F4                     l337:
  2321  02F4  0008               	return
  2322  02F5                     __end_of_initLCD:
  2323                           
  2324                           	psect	text6
  2325  0402                     __ptext6:	
  2326 ;; *************** function _LCD_functionSet *****************
  2327 ;; Defined at:
  2328 ;;		line 61 in file "LCDcontrol.c"
  2329 ;; Parameters:    Size  Location     Type
  2330 ;;  dataL           1    wreg     unsigned char 
  2331 ;;  lineNo          1    1[BANK0 ] unsigned char 
  2332 ;;  dispFont        1    2[BANK0 ] unsigned char 
  2333 ;; Auto vars:     Size  Location     Type
  2334 ;;  dataL           1    7[BANK0 ] unsigned char 
  2335 ;; Return value:  Size  Location     Type
  2336 ;;                  1    wreg      void 
  2337 ;; Registers used:
  2338 ;;		wreg, status,2, status,0, pclath, cstack
  2339 ;; Tracked objects:
  2340 ;;		On entry : 0/0
  2341 ;;		On exit  : 0/0
  2342 ;;		Unchanged: 0/0
  2343 ;; Data sizes:     COMMON   BANK0   BANK1   BANK3   BANK2
  2344 ;;      Params:         0       2       0       0       0
  2345 ;;      Locals:         0       1       0       0       0
  2346 ;;      Temps:          0       4       0       0       0
  2347 ;;      Totals:         0       7       0       0       0
  2348 ;;Total ram usage:        7 bytes
  2349 ;; Hardware stack levels used: 1
  2350 ;; Hardware stack levels required when called: 3
  2351 ;; This function calls:
  2352 ;;		_LCD_executeInstruction
  2353 ;; This function is called by:
  2354 ;;		_initLCD
  2355 ;; This function uses a non-reentrant model
  2356 ;;
  2357                           
  2358                           
  2359                           ;psect for function _LCD_functionSet
  2360  0402                     _LCD_functionSet:
  2361                           
  2362                           ;incstack = 0
  2363                           ; Regs used in _LCD_functionSet: [wreg+status,2+status,0+pclath+cstack]
  2364                           ;LCD_functionSet@dataL stored from wreg
  2365  0402  1283               	bcf	3,5	;RP0=0, select bank0
  2366  0403  1303               	bcf	3,6	;RP1=0, select bank0
  2367  0404  00A7               	movwf	LCD_functionSet@dataL
  2368  0405                     l1621:
  2369                           
  2370                           ;LCDcontrol.c: 62:     PORTDbits.RD7=0;
  2371  0405  1388               	bcf	8,7	;volatile
  2372                           
  2373                           ;LCDcontrol.c: 63:     PORTDbits.RD5=0;
  2374  0406  1288               	bcf	8,5	;volatile
  2375  0407                     l1623:
  2376                           
  2377                           ;LCDcontrol.c: 64:     PORTB=0;
  2378  0407  0186               	clrf	6	;volatile
  2379  0408                     l1625:
  2380                           
  2381                           ;LCDcontrol.c: 65:     PORTB=0b100000+(dataL<<4)+(lineNo<<3)+(dispFont<<2);
  2382  0408  0827               	movf	LCD_functionSet@dataL,w
  2383  0409  00A3               	movwf	??_LCD_functionSet
  2384  040A  3004               	movlw	4
  2385  040B                     u455:
  2386  040B  1003               	clrc
  2387  040C  0DA3               	rlf	??_LCD_functionSet,f
  2388  040D  3EFF               	addlw	-1
  2389  040E  1D03               	skipz
  2390  040F  2C0B               	goto	u455
  2391  0410  0821               	movf	LCD_functionSet@lineNo,w
  2392  0411  00A4               	movwf	??_LCD_functionSet+1
  2393  0412  3002               	movlw	2
  2394  0413                     u465:
  2395  0413  1003               	clrc
  2396  0414  0DA4               	rlf	??_LCD_functionSet+1,f
  2397  0415  3EFF               	addlw	-1
  2398  0416  1D03               	skipz
  2399  0417  2C13               	goto	u465
  2400  0418  1003               	clrc
  2401  0419  0D24               	rlf	??_LCD_functionSet+1,w
  2402  041A  0723               	addwf	??_LCD_functionSet,w
  2403  041B  00A5               	movwf	??_LCD_functionSet+2
  2404  041C  0822               	movf	LCD_functionSet@dispFont,w
  2405  041D  00A6               	movwf	??_LCD_functionSet+3
  2406  041E  3001               	movlw	1
  2407  041F                     u475:
  2408  041F  1003               	clrc
  2409  0420  0DA6               	rlf	??_LCD_functionSet+3,f
  2410  0421  3EFF               	addlw	-1
  2411  0422  1D03               	skipz
  2412  0423  2C1F               	goto	u475
  2413  0424  1003               	clrc
  2414  0425  0D26               	rlf	??_LCD_functionSet+3,w
  2415  0426  0725               	addwf	??_LCD_functionSet+2,w
  2416  0427  3E20               	addlw	32
  2417  0428  0086               	movwf	6	;volatile
  2418  0429                     l1627:
  2419                           
  2420                           ;LCDcontrol.c: 66:     LCD_executeInstruction();
  2421  0429  120A  118A  267B  120A  118A  	fcall	_LCD_executeInstruction
  2422  042E                     l1629:
  2423                           
  2424                           ;LCDcontrol.c: 67:     _delay((unsigned long)((50)*(8000000/4000000.0)));
  2425  042E  3020               	movlw	32
  2426  042F  1283               	bcf	3,5	;RP0=0, select bank0
  2427  0430  1303               	bcf	3,6	;RP1=0, select bank0
  2428  0431  00A3               	movwf	??_LCD_functionSet
  2429  0432                     u857:
  2430  0432  0BA3               	decfsz	??_LCD_functionSet,f
  2431  0433  2C32               	goto	u857
  2432  0434  0000               	nop
  2433  0435                     l322:
  2434  0435  0008               	return
  2435  0436                     __end_of_LCD_functionSet:
  2436                           
  2437                           	psect	text7
  2438  057C                     __ptext7:	
  2439 ;; *************** function _LCD_entryMode_set *****************
  2440 ;; Defined at:
  2441 ;;		line 39 in file "LCDcontrol.c"
  2442 ;; Parameters:    Size  Location     Type
  2443 ;;  inc_dec         1    wreg     unsigned char 
  2444 ;;  shift           1    1[BANK0 ] unsigned char 
  2445 ;; Auto vars:     Size  Location     Type
  2446 ;;  inc_dec         1    3[BANK0 ] unsigned char 
  2447 ;; Return value:  Size  Location     Type
  2448 ;;                  1    wreg      void 
  2449 ;; Registers used:
  2450 ;;		wreg, status,2, status,0, pclath, cstack
  2451 ;; Tracked objects:
  2452 ;;		On entry : 0/0
  2453 ;;		On exit  : 0/0
  2454 ;;		Unchanged: 0/0
  2455 ;; Data sizes:     COMMON   BANK0   BANK1   BANK3   BANK2
  2456 ;;      Params:         0       1       0       0       0
  2457 ;;      Locals:         0       1       0       0       0
  2458 ;;      Temps:          0       1       0       0       0
  2459 ;;      Totals:         0       3       0       0       0
  2460 ;;Total ram usage:        3 bytes
  2461 ;; Hardware stack levels used: 1
  2462 ;; Hardware stack levels required when called: 3
  2463 ;; This function calls:
  2464 ;;		_LCD_executeInstruction
  2465 ;; This function is called by:
  2466 ;;		_initLCD
  2467 ;; This function uses a non-reentrant model
  2468 ;;
  2469                           
  2470                           
  2471                           ;psect for function _LCD_entryMode_set
  2472  057C                     _LCD_entryMode_set:
  2473                           
  2474                           ;incstack = 0
  2475                           ; Regs used in _LCD_entryMode_set: [wreg+status,2+status,0+pclath+cstack]
  2476                           ;LCD_entryMode_set@inc_dec stored from wreg
  2477  057C  1283               	bcf	3,5	;RP0=0, select bank0
  2478  057D  1303               	bcf	3,6	;RP1=0, select bank0
  2479  057E  00A3               	movwf	LCD_entryMode_set@inc_dec
  2480  057F                     l1601:
  2481                           
  2482                           ;LCDcontrol.c: 40:     PORTDbits.RD7=0;
  2483  057F  1388               	bcf	8,7	;volatile
  2484                           
  2485                           ;LCDcontrol.c: 41:     PORTDbits.RD5=0;
  2486  0580  1288               	bcf	8,5	;volatile
  2487  0581                     l1603:
  2488                           
  2489                           ;LCDcontrol.c: 42:     PORTB=0;
  2490  0581  0186               	clrf	6	;volatile
  2491  0582                     l1605:
  2492                           
  2493                           ;LCDcontrol.c: 43:     PORTB=0b100+(inc_dec<<1)+shift;
  2494  0582  0823               	movf	LCD_entryMode_set@inc_dec,w
  2495  0583  00A2               	movwf	??_LCD_entryMode_set
  2496  0584  3001               	movlw	1
  2497  0585                     u435:
  2498  0585  1003               	clrc
  2499  0586  0DA2               	rlf	??_LCD_entryMode_set,f
  2500  0587  3EFF               	addlw	-1
  2501  0588  1D03               	skipz
  2502  0589  2D85               	goto	u435
  2503  058A  0821               	movf	LCD_entryMode_set@shift,w
  2504  058B  0722               	addwf	??_LCD_entryMode_set,w
  2505  058C  3E04               	addlw	4
  2506  058D  0086               	movwf	6	;volatile
  2507  058E                     l1607:
  2508                           
  2509                           ;LCDcontrol.c: 44:     LCD_executeInstruction();
  2510  058E  120A  118A  267B  120A  118A  	fcall	_LCD_executeInstruction
  2511  0593                     l1609:
  2512                           
  2513                           ;LCDcontrol.c: 45:     _delay((unsigned long)((50)*(8000000/4000000.0)));
  2514  0593  3020               	movlw	32
  2515  0594  1283               	bcf	3,5	;RP0=0, select bank0
  2516  0595  1303               	bcf	3,6	;RP1=0, select bank0
  2517  0596  00A2               	movwf	??_LCD_entryMode_set
  2518  0597                     u867:
  2519  0597  0BA2               	decfsz	??_LCD_entryMode_set,f
  2520  0598  2D97               	goto	u867
  2521  0599  0000               	nop
  2522  059A                     l316:
  2523  059A  0008               	return
  2524  059B                     __end_of_LCD_entryMode_set:
  2525                           
  2526                           	psect	text8
  2527  0512                     __ptext8:	
  2528 ;; *************** function _LCD_displayOnOff *****************
  2529 ;; Defined at:
  2530 ;;		line 50 in file "LCDcontrol.c"
  2531 ;; Parameters:    Size  Location     Type
  2532 ;;  on_off          1    wreg     unsigned char 
  2533 ;;  cursor          1    1[BANK0 ] unsigned char 
  2534 ;;  blink           1    2[BANK0 ] unsigned char 
  2535 ;; Auto vars:     Size  Location     Type
  2536 ;;  on_off          1    6[BANK0 ] unsigned char 
  2537 ;; Return value:  Size  Location     Type
  2538 ;;                  1    wreg      void 
  2539 ;; Registers used:
  2540 ;;		wreg, status,2, status,0, pclath, cstack
  2541 ;; Tracked objects:
  2542 ;;		On entry : 0/0
  2543 ;;		On exit  : 0/0
  2544 ;;		Unchanged: 0/0
  2545 ;; Data sizes:     COMMON   BANK0   BANK1   BANK3   BANK2
  2546 ;;      Params:         0       2       0       0       0
  2547 ;;      Locals:         0       1       0       0       0
  2548 ;;      Temps:          0       3       0       0       0
  2549 ;;      Totals:         0       6       0       0       0
  2550 ;;Total ram usage:        6 bytes
  2551 ;; Hardware stack levels used: 1
  2552 ;; Hardware stack levels required when called: 3
  2553 ;; This function calls:
  2554 ;;		_LCD_executeInstruction
  2555 ;; This function is called by:
  2556 ;;		_initLCD
  2557 ;; This function uses a non-reentrant model
  2558 ;;
  2559                           
  2560                           
  2561                           ;psect for function _LCD_displayOnOff
  2562  0512                     _LCD_displayOnOff:
  2563                           
  2564                           ;incstack = 0
  2565                           ; Regs used in _LCD_displayOnOff: [wreg+status,2+status,0+pclath+cstack]
  2566                           ;LCD_displayOnOff@on_off stored from wreg
  2567  0512  1283               	bcf	3,5	;RP0=0, select bank0
  2568  0513  1303               	bcf	3,6	;RP1=0, select bank0
  2569  0514  00A6               	movwf	LCD_displayOnOff@on_off
  2570  0515                     l1611:
  2571                           
  2572                           ;LCDcontrol.c: 51:     PORTDbits.RD7=0;
  2573  0515  1388               	bcf	8,7	;volatile
  2574                           
  2575                           ;LCDcontrol.c: 52:     PORTDbits.RD5=0;
  2576  0516  1288               	bcf	8,5	;volatile
  2577  0517                     l1613:
  2578                           
  2579                           ;LCDcontrol.c: 53:     PORTB=0;
  2580  0517  0186               	clrf	6	;volatile
  2581  0518                     l1615:
  2582                           
  2583                           ;LCDcontrol.c: 54:     PORTB=0b1000+(on_off<<2)+(cursor<<1)+blink;
  2584  0518  0826               	movf	LCD_displayOnOff@on_off,w
  2585  0519  00A3               	movwf	??_LCD_displayOnOff
  2586  051A  3002               	movlw	2
  2587  051B                     u445:
  2588  051B  1003               	clrc
  2589  051C  0DA3               	rlf	??_LCD_displayOnOff,f
  2590  051D  3EFF               	addlw	-1
  2591  051E  1D03               	skipz
  2592  051F  2D1B               	goto	u445
  2593  0520  0821               	movf	LCD_displayOnOff@cursor,w
  2594  0521  00A4               	movwf	??_LCD_displayOnOff+1
  2595  0522  0724               	addwf	??_LCD_displayOnOff+1,w
  2596  0523  0723               	addwf	??_LCD_displayOnOff,w
  2597  0524  00A5               	movwf	??_LCD_displayOnOff+2
  2598  0525  0822               	movf	LCD_displayOnOff@blink,w
  2599  0526  0725               	addwf	??_LCD_displayOnOff+2,w
  2600  0527  3E08               	addlw	8
  2601  0528  0086               	movwf	6	;volatile
  2602  0529                     l1617:
  2603                           
  2604                           ;LCDcontrol.c: 55:     LCD_executeInstruction();
  2605  0529  120A  118A  267B  120A  118A  	fcall	_LCD_executeInstruction
  2606  052E                     l1619:
  2607                           
  2608                           ;LCDcontrol.c: 56:     _delay((unsigned long)((50)*(8000000/4000000.0)));
  2609  052E  3020               	movlw	32
  2610  052F  1283               	bcf	3,5	;RP0=0, select bank0
  2611  0530  1303               	bcf	3,6	;RP1=0, select bank0
  2612  0531  00A3               	movwf	??_LCD_displayOnOff
  2613  0532                     u877:
  2614  0532  0BA3               	decfsz	??_LCD_displayOnOff,f
  2615  0533  2D32               	goto	u877
  2616  0534  0000               	nop
  2617  0535                     l319:
  2618  0535  0008               	return
  2619  0536                     __end_of_LCD_displayOnOff:
  2620                           
  2621                           	psect	text9
  2622  060A                     __ptext9:	
  2623 ;; *************** function _LCD_clearDisplay *****************
  2624 ;; Defined at:
  2625 ;;		line 29 in file "LCDcontrol.c"
  2626 ;; Parameters:    Size  Location     Type
  2627 ;;		None
  2628 ;; Auto vars:     Size  Location     Type
  2629 ;;		None
  2630 ;; Return value:  Size  Location     Type
  2631 ;;                  1    wreg      void 
  2632 ;; Registers used:
  2633 ;;		wreg, status,2, status,0, pclath, cstack
  2634 ;; Tracked objects:
  2635 ;;		On entry : 0/0
  2636 ;;		On exit  : 0/0
  2637 ;;		Unchanged: 0/0
  2638 ;; Data sizes:     COMMON   BANK0   BANK1   BANK3   BANK2
  2639 ;;      Params:         0       0       0       0       0
  2640 ;;      Locals:         0       0       0       0       0
  2641 ;;      Temps:          0       2       0       0       0
  2642 ;;      Totals:         0       2       0       0       0
  2643 ;;Total ram usage:        2 bytes
  2644 ;; Hardware stack levels used: 1
  2645 ;; Hardware stack levels required when called: 3
  2646 ;; This function calls:
  2647 ;;		_LCD_executeInstruction
  2648 ;; This function is called by:
  2649 ;;		_initLCD
  2650 ;; This function uses a non-reentrant model
  2651 ;;
  2652                           
  2653                           
  2654                           ;psect for function _LCD_clearDisplay
  2655  060A                     _LCD_clearDisplay:
  2656  060A                     l1593:	
  2657                           ;incstack = 0
  2658                           ; Regs used in _LCD_clearDisplay: [wreg+status,2+status,0+pclath+cstack]
  2659                           
  2660                           
  2661                           ;LCDcontrol.c: 30:     PORTEbits.RE0=0;
  2662  060A  1283               	bcf	3,5	;RP0=0, select bank0
  2663  060B  1303               	bcf	3,6	;RP1=0, select bank0
  2664  060C  1009               	bcf	9,0	;volatile
  2665                           
  2666                           ;LCDcontrol.c: 31:     PORTEbits.RE1=0;
  2667  060D  1089               	bcf	9,1	;volatile
  2668  060E                     l1595:
  2669                           
  2670                           ;LCDcontrol.c: 32:     PORTB=0b000000001;
  2671  060E  3001               	movlw	1
  2672  060F  0086               	movwf	6	;volatile
  2673  0610                     l1597:
  2674                           
  2675                           ;LCDcontrol.c: 33:     LCD_executeInstruction();
  2676  0610  120A  118A  267B  120A  118A  	fcall	_LCD_executeInstruction
  2677  0615                     l1599:
  2678                           
  2679                           ;LCDcontrol.c: 34:     _delay((unsigned long)((2)*(8000000/4000.0)));
  2680  0615  3006               	movlw	6
  2681  0616  1283               	bcf	3,5	;RP0=0, select bank0
  2682  0617  1303               	bcf	3,6	;RP1=0, select bank0
  2683  0618  00A2               	movwf	??_LCD_clearDisplay+1
  2684  0619  302F               	movlw	47
  2685  061A  00A1               	movwf	??_LCD_clearDisplay
  2686  061B                     u887:
  2687  061B  0BA1               	decfsz	??_LCD_clearDisplay,f
  2688  061C  2E1B               	goto	u887
  2689  061D  0BA2               	decfsz	??_LCD_clearDisplay+1,f
  2690  061E  2E1B               	goto	u887
  2691  061F  2E20               	nop2
  2692  0620                     l313:
  2693  0620  0008               	return
  2694  0621                     __end_of_LCD_clearDisplay:
  2695                           
  2696                           	psect	text10
  2697  03B9                     __ptext10:	
  2698 ;; *************** function _configuracion *****************
  2699 ;; Defined at:
  2700 ;;		line 150 in file "PIC1P1main.c"
  2701 ;; Parameters:    Size  Location     Type
  2702 ;;		None
  2703 ;; Auto vars:     Size  Location     Type
  2704 ;;		None
  2705 ;; Return value:  Size  Location     Type
  2706 ;;                  1    wreg      void 
  2707 ;; Registers used:
  2708 ;;		wreg, status,2, status,0, pclath, cstack
  2709 ;; Tracked objects:
  2710 ;;		On entry : 0/0
  2711 ;;		On exit  : 0/0
  2712 ;;		Unchanged: 0/0
  2713 ;; Data sizes:     COMMON   BANK0   BANK1   BANK3   BANK2
  2714 ;;      Params:         0       0       0       0       0
  2715 ;;      Locals:         0       0       0       0       0
  2716 ;;      Temps:          0       1       0       0       0
  2717 ;;      Totals:         0       1       0       0       0
  2718 ;;Total ram usage:        1 bytes
  2719 ;; Hardware stack levels used: 1
  2720 ;; Hardware stack levels required when called: 3
  2721 ;; This function calls:
  2722 ;;		_T1enableInterrupt
  2723 ;;		_initSPI_maestro
  2724 ;;		_initUSARTransmit
  2725 ;;		_setupOsc
  2726 ;;		_setupTimer1
  2727 ;; This function is called by:
  2728 ;;		_main
  2729 ;; This function uses a non-reentrant model
  2730 ;;
  2731                           
  2732                           
  2733                           ;psect for function _configuracion
  2734  03B9                     _configuracion:
  2735  03B9                     l1723:	
  2736                           ;incstack = 0
  2737                           ; Regs used in _configuracion: [wreg+status,2+status,0+pclath+cstack]
  2738                           
  2739                           
  2740                           ;PIC1P1main.c: 153:     ANSEL=0;
  2741  03B9  1683               	bsf	3,5	;RP0=1, select bank3
  2742  03BA  1703               	bsf	3,6	;RP1=1, select bank3
  2743  03BB  0188               	clrf	8	;volatile
  2744                           
  2745                           ;PIC1P1main.c: 154:     ANSELH=0;
  2746  03BC  0189               	clrf	9	;volatile
  2747                           
  2748                           ;PIC1P1main.c: 156:     TRISA=0;
  2749  03BD  1683               	bsf	3,5	;RP0=1, select bank1
  2750  03BE  1303               	bcf	3,6	;RP1=0, select bank1
  2751  03BF  0185               	clrf	5	;volatile
  2752                           
  2753                           ;PIC1P1main.c: 157:     TRISB=0;
  2754  03C0  0186               	clrf	6	;volatile
  2755                           
  2756                           ;PIC1P1main.c: 158:     TRISD=0;
  2757  03C1  0188               	clrf	8	;volatile
  2758                           
  2759                           ;PIC1P1main.c: 159:     TRISC=0;
  2760  03C2  0187               	clrf	7	;volatile
  2761                           
  2762                           ;PIC1P1main.c: 160:     TRISE=0;
  2763  03C3  0189               	clrf	9	;volatile
  2764                           
  2765                           ;PIC1P1main.c: 162:     PORTA=0;
  2766  03C4  1283               	bcf	3,5	;RP0=0, select bank0
  2767  03C5  1303               	bcf	3,6	;RP1=0, select bank0
  2768  03C6  0185               	clrf	5	;volatile
  2769                           
  2770                           ;PIC1P1main.c: 163:     PORTB=0;
  2771  03C7  0186               	clrf	6	;volatile
  2772                           
  2773                           ;PIC1P1main.c: 164:     PORTD=0;
  2774  03C8  0188               	clrf	8	;volatile
  2775                           
  2776                           ;PIC1P1main.c: 165:     PORTC=0;
  2777  03C9  0187               	clrf	7	;volatile
  2778                           
  2779                           ;PIC1P1main.c: 166:     PORTE=0;
  2780  03CA  0189               	clrf	9	;volatile
  2781  03CB                     l1725:
  2782                           
  2783                           ;PIC1P1main.c: 170:     setupOsc(0b100,1);
  2784  03CB  01A0               	clrf	setupOsc@clkSrc
  2785  03CC  0AA0               	incf	setupOsc@clkSrc,f
  2786  03CD  3004               	movlw	4
  2787  03CE  120A  118A  25D7  120A  118A  	fcall	_setupOsc
  2788  03D3                     l1727:
  2789                           
  2790                           ;PIC1P1main.c: 174:     initSPI_maestro(0);
  2791  03D3  3000               	movlw	0
  2792  03D4  120A  118A  25BA  120A  118A  	fcall	_initSPI_maestro
  2793  03D9                     l1729:
  2794                           
  2795                           ;PIC1P1main.c: 178:     initUSARTransmit(1,1,25);
  2796  03D9  1283               	bcf	3,5	;RP0=0, select bank0
  2797  03DA  1303               	bcf	3,6	;RP1=0, select bank0
  2798  03DB  01A0               	clrf	initUSARTransmit@BRG16
  2799  03DC  0AA0               	incf	initUSARTransmit@BRG16,f
  2800  03DD  3019               	movlw	25
  2801  03DE  00A7               	movwf	??_configuracion
  2802  03DF  0827               	movf	??_configuracion,w
  2803  03E0  00A1               	movwf	initUSARTransmit@vBRG
  2804  03E1  3001               	movlw	1
  2805  03E2  120A  118A  24ED  120A  118A  	fcall	_initUSARTransmit
  2806  03E7                     l1731:
  2807                           
  2808                           ;PIC1P1main.c: 182:     setupTimer1(0,1,3036);
  2809  03E7  1283               	bcf	3,5	;RP0=0, select bank0
  2810  03E8  1303               	bcf	3,6	;RP1=0, select bank0
  2811  03E9  01A0               	clrf	setupTimer1@prescaler
  2812  03EA  0AA0               	incf	setupTimer1@prescaler,f
  2813  03EB  30DC               	movlw	220
  2814  03EC  00A1               	movwf	setupTimer1@carga
  2815  03ED  300B               	movlw	11
  2816  03EE  00A2               	movwf	setupTimer1@carga+1
  2817  03EF  3000               	movlw	0
  2818  03F0  120A  118A  259B  120A  118A  	fcall	_setupTimer1
  2819  03F5                     l1733:
  2820                           
  2821                           ;PIC1P1main.c: 186:     INTCONbits.GIE=1;
  2822  03F5  178B               	bsf	11,7	;volatile
  2823  03F6                     l1735:
  2824                           
  2825                           ;PIC1P1main.c: 187:     INTCONbits.PEIE=1;
  2826  03F6  170B               	bsf	11,6	;volatile
  2827  03F7                     l1737:
  2828                           
  2829                           ;PIC1P1main.c: 188:     T1enableInterrupt();
  2830  03F7  120A  118A  26A0  120A  118A  	fcall	_T1enableInterrupt
  2831  03FC                     l1739:
  2832                           
  2833                           ;PIC1P1main.c: 192:     pot=0;
  2834  03FC  1283               	bcf	3,5	;RP0=0, select bank0
  2835  03FD  1303               	bcf	3,6	;RP1=0, select bank0
  2836  03FE  01EA               	clrf	_pot
  2837  03FF                     l1741:
  2838                           
  2839                           ;PIC1P1main.c: 193:     cont=0;
  2840  03FF  01E9               	clrf	_cont
  2841  0400                     l1743:
  2842                           
  2843                           ;PIC1P1main.c: 194:     temp=0;
  2844  0400  01E8               	clrf	_temp
  2845  0401                     l108:
  2846  0401  0008               	return
  2847  0402                     __end_of_configuracion:
  2848                           
  2849                           	psect	text11
  2850  059B                     __ptext11:	
  2851 ;; *************** function _setupTimer1 *****************
  2852 ;; Defined at:
  2853 ;;		line 178 in file "C:/Users/david/DavidU/ElectronicaDigital2/Laboratorio2/Laboratorio/Lab2dig2.X/confPIC16F887.c"
  2854 ;; Parameters:    Size  Location     Type
  2855 ;;  clkSrc          1    wreg     unsigned char 
  2856 ;;  prescaler       1    0[BANK0 ] unsigned char 
  2857 ;;  carga           2    1[BANK0 ] int 
  2858 ;; Auto vars:     Size  Location     Type
  2859 ;;  clkSrc          1    4[BANK0 ] unsigned char 
  2860 ;;  T1H             1    6[BANK0 ] unsigned char 
  2861 ;;  T1L             1    5[BANK0 ] unsigned char 
  2862 ;; Return value:  Size  Location     Type
  2863 ;;                  1    wreg      void 
  2864 ;; Registers used:
  2865 ;;		wreg, status,2, status,0
  2866 ;; Tracked objects:
  2867 ;;		On entry : 0/0
  2868 ;;		On exit  : 0/0
  2869 ;;		Unchanged: 0/0
  2870 ;; Data sizes:     COMMON   BANK0   BANK1   BANK3   BANK2
  2871 ;;      Params:         0       3       0       0       0
  2872 ;;      Locals:         0       3       0       0       0
  2873 ;;      Temps:          0       1       0       0       0
  2874 ;;      Totals:         0       7       0       0       0
  2875 ;;Total ram usage:        7 bytes
  2876 ;; Hardware stack levels used: 1
  2877 ;; Hardware stack levels required when called: 2
  2878 ;; This function calls:
  2879 ;;		Nothing
  2880 ;; This function is called by:
  2881 ;;		_configuracion
  2882 ;; This function uses a non-reentrant model
  2883 ;;
  2884                           
  2885                           
  2886                           ;psect for function _setupTimer1
  2887  059B                     _setupTimer1:
  2888                           
  2889                           ;incstack = 0
  2890                           ; Regs used in _setupTimer1: [wreg+status,2+status,0]
  2891                           ;setupTimer1@clkSrc stored from wreg
  2892  059B  1283               	bcf	3,5	;RP0=0, select bank0
  2893  059C  1303               	bcf	3,6	;RP1=0, select bank0
  2894  059D  00A4               	movwf	setupTimer1@clkSrc
  2895  059E                     l1565:
  2896                           
  2897                           ;C:/Users/david/DavidU/ElectronicaDigital2/Laboratorio2/Laboratorio/Lab2dig2.X/confPIC16
      +                          F887.c: 179:     T1CONbits.TMR1CS=clkSrc;
  2898  059E  0C24               	rrf	setupTimer1@clkSrc,w
  2899  059F  1C03               	skipc
  2900  05A0  1090               	bcf	16,1	;volatile
  2901  05A1  1803               	skipnc
  2902  05A2  1490               	bsf	16,1	;volatile
  2903  05A3                     l1567:
  2904                           
  2905                           ;C:/Users/david/DavidU/ElectronicaDigital2/Laboratorio2/Laboratorio/Lab2dig2.X/confPIC16
      +                          F887.c: 180:     T1CONbits.T1CKPS=prescaler;
  2906  05A3  0820               	movf	setupTimer1@prescaler,w
  2907  05A4  00A3               	movwf	??_setupTimer1
  2908  05A5  0EA3               	swapf	??_setupTimer1,f
  2909  05A6  0810               	movf	16,w	;volatile
  2910  05A7  0623               	xorwf	??_setupTimer1,w
  2911  05A8  39CF               	andlw	-49
  2912  05A9  0623               	xorwf	??_setupTimer1,w
  2913  05AA  0090               	movwf	16	;volatile
  2914  05AB                     l1569:
  2915                           
  2916                           ;C:/Users/david/DavidU/ElectronicaDigital2/Laboratorio2/Laboratorio/Lab2dig2.X/confPIC16
      +                          F887.c: 181:     T1CONbits.TMR1ON=1;
  2917  05AB  1410               	bsf	16,0	;volatile
  2918  05AC                     l1571:
  2919                           
  2920                           ;C:/Users/david/DavidU/ElectronicaDigital2/Laboratorio2/Laboratorio/Lab2dig2.X/confPIC16
      +                          F887.c: 182:     uint8_t T1L = carga & 0xFF;
  2921  05AC  0821               	movf	setupTimer1@carga,w
  2922  05AD  00A3               	movwf	??_setupTimer1
  2923  05AE  0823               	movf	??_setupTimer1,w
  2924  05AF  00A5               	movwf	setupTimer1@T1L
  2925                           
  2926                           ;C:/Users/david/DavidU/ElectronicaDigital2/Laboratorio2/Laboratorio/Lab2dig2.X/confPIC16
      +                          F887.c: 183:     uint8_t T1H = carga>>8;
  2927  05B0  0822               	movf	setupTimer1@carga+1,w
  2928  05B1  00A3               	movwf	??_setupTimer1
  2929  05B2  0823               	movf	??_setupTimer1,w
  2930  05B3  00A6               	movwf	setupTimer1@T1H
  2931  05B4                     l1573:
  2932                           
  2933                           ;C:/Users/david/DavidU/ElectronicaDigital2/Laboratorio2/Laboratorio/Lab2dig2.X/confPIC16
      +                          F887.c: 184:     TMR1H = T1H;
  2934  05B4  0826               	movf	setupTimer1@T1H,w
  2935  05B5  008F               	movwf	15	;volatile
  2936  05B6                     l1575:
  2937                           
  2938                           ;C:/Users/david/DavidU/ElectronicaDigital2/Laboratorio2/Laboratorio/Lab2dig2.X/confPIC16
      +                          F887.c: 185:     TMR1L = T1L;
  2939  05B6  0825               	movf	setupTimer1@T1L,w
  2940  05B7  008E               	movwf	14	;volatile
  2941  05B8                     l1577:
  2942                           
  2943                           ;C:/Users/david/DavidU/ElectronicaDigital2/Laboratorio2/Laboratorio/Lab2dig2.X/confPIC16
      +                          F887.c: 186:     PIR1bits.TMR1IF=0;
  2944  05B8  100C               	bcf	12,0	;volatile
  2945  05B9                     l244:
  2946  05B9  0008               	return
  2947  05BA                     __end_of_setupTimer1:
  2948                           
  2949                           	psect	text12
  2950  05D7                     __ptext12:	
  2951 ;; *************** function _setupOsc *****************
  2952 ;; Defined at:
  2953 ;;		line 112 in file "C:/Users/david/DavidU/ElectronicaDigital2/Laboratorio2/Laboratorio/Lab2dig2.X/confPIC16F887.c"
  2954 ;; Parameters:    Size  Location     Type
  2955 ;;  freq            1    wreg     unsigned char 
  2956 ;;  clkSrc          1    0[BANK0 ] unsigned char 
  2957 ;; Auto vars:     Size  Location     Type
  2958 ;;  freq            1    2[BANK0 ] unsigned char 
  2959 ;; Return value:  Size  Location     Type
  2960 ;;                  1    wreg      void 
  2961 ;; Registers used:
  2962 ;;		wreg, status,2, status,0
  2963 ;; Tracked objects:
  2964 ;;		On entry : 0/0
  2965 ;;		On exit  : 0/0
  2966 ;;		Unchanged: 0/0
  2967 ;; Data sizes:     COMMON   BANK0   BANK1   BANK3   BANK2
  2968 ;;      Params:         0       1       0       0       0
  2969 ;;      Locals:         0       1       0       0       0
  2970 ;;      Temps:          0       1       0       0       0
  2971 ;;      Totals:         0       3       0       0       0
  2972 ;;Total ram usage:        3 bytes
  2973 ;; Hardware stack levels used: 1
  2974 ;; Hardware stack levels required when called: 2
  2975 ;; This function calls:
  2976 ;;		Nothing
  2977 ;; This function is called by:
  2978 ;;		_configuracion
  2979 ;; This function uses a non-reentrant model
  2980 ;;
  2981                           
  2982                           
  2983                           ;psect for function _setupOsc
  2984  05D7                     _setupOsc:
  2985                           
  2986                           ;incstack = 0
  2987                           ; Regs used in _setupOsc: [wreg+status,2+status,0]
  2988                           ;setupOsc@freq stored from wreg
  2989  05D7  1283               	bcf	3,5	;RP0=0, select bank0
  2990  05D8  1303               	bcf	3,6	;RP1=0, select bank0
  2991  05D9  00A2               	movwf	setupOsc@freq
  2992  05DA                     l1533:
  2993                           
  2994                           ;C:/Users/david/DavidU/ElectronicaDigital2/Laboratorio2/Laboratorio/Lab2dig2.X/confPIC16
      +                          F887.c: 113:     OSCCONbits.SCS=clkSrc;
  2995  05DA  0C20               	rrf	setupOsc@clkSrc,w
  2996  05DB  1683               	bsf	3,5	;RP0=1, select bank1
  2997  05DC  1303               	bcf	3,6	;RP1=0, select bank1
  2998  05DD  1C03               	skipc
  2999  05DE  100F               	bcf	15,0	;volatile
  3000  05DF  1803               	skipnc
  3001  05E0  140F               	bsf	15,0	;volatile
  3002  05E1                     l1535:
  3003                           
  3004                           ;C:/Users/david/DavidU/ElectronicaDigital2/Laboratorio2/Laboratorio/Lab2dig2.X/confPIC16
      +                          F887.c: 114:     OSCCONbits.IRCF=freq;
  3005  05E1  1283               	bcf	3,5	;RP0=0, select bank0
  3006  05E2  1303               	bcf	3,6	;RP1=0, select bank0
  3007  05E3  0822               	movf	setupOsc@freq,w
  3008  05E4  00A1               	movwf	??_setupOsc
  3009  05E5  0EA1               	swapf	??_setupOsc,f
  3010  05E6  1683               	bsf	3,5	;RP0=1, select bank1
  3011  05E7  1303               	bcf	3,6	;RP1=0, select bank1
  3012  05E8  080F               	movf	15,w	;volatile
  3013  05E9  1283               	bcf	3,5	;RP0=0, select bank0
  3014  05EA  1303               	bcf	3,6	;RP1=0, select bank0
  3015  05EB  0621               	xorwf	??_setupOsc,w
  3016  05EC  398F               	andlw	-113
  3017  05ED  0621               	xorwf	??_setupOsc,w
  3018  05EE  1683               	bsf	3,5	;RP0=1, select bank1
  3019  05EF  1303               	bcf	3,6	;RP1=0, select bank1
  3020  05F0  008F               	movwf	15	;volatile
  3021  05F1                     l215:
  3022  05F1  0008               	return
  3023  05F2                     __end_of_setupOsc:
  3024                           
  3025                           	psect	text13
  3026  04ED                     __ptext13:	
  3027 ;; *************** function _initUSARTransmit *****************
  3028 ;; Defined at:
  3029 ;;		line 271 in file "C:/Users/david/DavidU/ElectronicaDigital2/Laboratorio2/Laboratorio/Lab2dig2.X/confPIC16F887.c"
  3030 ;; Parameters:    Size  Location     Type
  3031 ;;  BRGH            1    wreg     unsigned char 
  3032 ;;  BRG16           1    0[BANK0 ] unsigned char 
  3033 ;;  vBRG            1    1[BANK0 ] unsigned char 
  3034 ;; Auto vars:     Size  Location     Type
  3035 ;;  BRGH            1    2[BANK0 ] unsigned char 
  3036 ;; Return value:  Size  Location     Type
  3037 ;;                  1    wreg      void 
  3038 ;; Registers used:
  3039 ;;		wreg, status,0
  3040 ;; Tracked objects:
  3041 ;;		On entry : 0/0
  3042 ;;		On exit  : 0/0
  3043 ;;		Unchanged: 0/0
  3044 ;; Data sizes:     COMMON   BANK0   BANK1   BANK3   BANK2
  3045 ;;      Params:         0       2       0       0       0
  3046 ;;      Locals:         0       1       0       0       0
  3047 ;;      Temps:          0       0       0       0       0
  3048 ;;      Totals:         0       3       0       0       0
  3049 ;;Total ram usage:        3 bytes
  3050 ;; Hardware stack levels used: 1
  3051 ;; Hardware stack levels required when called: 2
  3052 ;; This function calls:
  3053 ;;		Nothing
  3054 ;; This function is called by:
  3055 ;;		_configuracion
  3056 ;; This function uses a non-reentrant model
  3057 ;;
  3058                           
  3059                           
  3060                           ;psect for function _initUSARTransmit
  3061  04ED                     _initUSARTransmit:
  3062                           
  3063                           ;incstack = 0
  3064                           ; Regs used in _initUSARTransmit: [wreg+status,0]
  3065                           ;initUSARTransmit@BRGH stored from wreg
  3066  04ED  1283               	bcf	3,5	;RP0=0, select bank0
  3067  04EE  1303               	bcf	3,6	;RP1=0, select bank0
  3068  04EF  00A2               	movwf	initUSARTransmit@BRGH
  3069  04F0                     l1551:
  3070                           
  3071                           ;C:/Users/david/DavidU/ElectronicaDigital2/Laboratorio2/Laboratorio/Lab2dig2.X/confPIC16
      +                          F887.c: 273:     TXSTAbits.BRGH=BRGH;
  3072  04F0  0C22               	rrf	initUSARTransmit@BRGH,w
  3073  04F1  1683               	bsf	3,5	;RP0=1, select bank1
  3074  04F2  1303               	bcf	3,6	;RP1=0, select bank1
  3075  04F3  1C03               	skipc
  3076  04F4  1118               	bcf	24,2	;volatile
  3077  04F5  1803               	skipnc
  3078  04F6  1518               	bsf	24,2	;volatile
  3079                           
  3080                           ;C:/Users/david/DavidU/ElectronicaDigital2/Laboratorio2/Laboratorio/Lab2dig2.X/confPIC16
      +                          F887.c: 274:     BAUDCTLbits.BRG16=BRG16;
  3081  04F7  1283               	bcf	3,5	;RP0=0, select bank0
  3082  04F8  1303               	bcf	3,6	;RP1=0, select bank0
  3083  04F9  0C20               	rrf	initUSARTransmit@BRG16,w
  3084  04FA  1683               	bsf	3,5	;RP0=1, select bank3
  3085  04FB  1703               	bsf	3,6	;RP1=1, select bank3
  3086  04FC  1C03               	skipc
  3087  04FD  1187               	bcf	7,3	;volatile
  3088  04FE  1803               	skipnc
  3089  04FF  1587               	bsf	7,3	;volatile
  3090  0500                     l1553:
  3091                           
  3092                           ;C:/Users/david/DavidU/ElectronicaDigital2/Laboratorio2/Laboratorio/Lab2dig2.X/confPIC16
      +                          F887.c: 275:     SPBRG=vBRG;
  3093  0500  1283               	bcf	3,5	;RP0=0, select bank0
  3094  0501  1303               	bcf	3,6	;RP1=0, select bank0
  3095  0502  0821               	movf	initUSARTransmit@vBRG,w
  3096  0503  1683               	bsf	3,5	;RP0=1, select bank1
  3097  0504  1303               	bcf	3,6	;RP1=0, select bank1
  3098  0505  0099               	movwf	25	;volatile
  3099  0506                     l1555:
  3100                           
  3101                           ;C:/Users/david/DavidU/ElectronicaDigital2/Laboratorio2/Laboratorio/Lab2dig2.X/confPIC16
      +                          F887.c: 277:     RCSTAbits.SPEN=1;
  3102  0506  1283               	bcf	3,5	;RP0=0, select bank0
  3103  0507  1303               	bcf	3,6	;RP1=0, select bank0
  3104  0508  1798               	bsf	24,7	;volatile
  3105  0509                     l1557:
  3106                           
  3107                           ;C:/Users/david/DavidU/ElectronicaDigital2/Laboratorio2/Laboratorio/Lab2dig2.X/confPIC16
      +                          F887.c: 278:     TXSTAbits.SYNC=0;
  3108  0509  1683               	bsf	3,5	;RP0=1, select bank1
  3109  050A  1303               	bcf	3,6	;RP1=0, select bank1
  3110  050B  1218               	bcf	24,4	;volatile
  3111  050C                     l1559:
  3112                           
  3113                           ;C:/Users/david/DavidU/ElectronicaDigital2/Laboratorio2/Laboratorio/Lab2dig2.X/confPIC16
      +                          F887.c: 280:     TXSTAbits.TX9=0;
  3114  050C  1318               	bcf	24,6	;volatile
  3115  050D                     l1561:
  3116                           
  3117                           ;C:/Users/david/DavidU/ElectronicaDigital2/Laboratorio2/Laboratorio/Lab2dig2.X/confPIC16
      +                          F887.c: 282:     TXSTAbits.TXEN=1;
  3118  050D  1698               	bsf	24,5	;volatile
  3119  050E                     l1563:
  3120                           
  3121                           ;C:/Users/david/DavidU/ElectronicaDigital2/Laboratorio2/Laboratorio/Lab2dig2.X/confPIC16
      +                          F887.c: 283:     PIR1bits.TXIF=0;
  3122  050E  1283               	bcf	3,5	;RP0=0, select bank0
  3123  050F  1303               	bcf	3,6	;RP1=0, select bank0
  3124  0510  120C               	bcf	12,4	;volatile
  3125  0511                     l277:
  3126  0511  0008               	return
  3127  0512                     __end_of_initUSARTransmit:
  3128                           
  3129                           	psect	text14
  3130  05BA                     __ptext14:	
  3131 ;; *************** function _initSPI_maestro *****************
  3132 ;; Defined at:
  3133 ;;		line 202 in file "C:/Users/david/DavidU/ElectronicaDigital2/Laboratorio2/Laboratorio/Lab2dig2.X/confPIC16F887.c"
  3134 ;; Parameters:    Size  Location     Type
  3135 ;;  SPIfosc         1    wreg     unsigned char 
  3136 ;; Auto vars:     Size  Location     Type
  3137 ;;  SPIfosc         1    0[BANK0 ] unsigned char 
  3138 ;; Return value:  Size  Location     Type
  3139 ;;                  1    wreg      void 
  3140 ;; Registers used:
  3141 ;;		wreg, status,2, status,0
  3142 ;; Tracked objects:
  3143 ;;		On entry : 0/0
  3144 ;;		On exit  : 0/0
  3145 ;;		Unchanged: 0/0
  3146 ;; Data sizes:     COMMON   BANK0   BANK1   BANK3   BANK2
  3147 ;;      Params:         0       0       0       0       0
  3148 ;;      Locals:         0       1       0       0       0
  3149 ;;      Temps:          0       0       0       0       0
  3150 ;;      Totals:         0       1       0       0       0
  3151 ;;Total ram usage:        1 bytes
  3152 ;; Hardware stack levels used: 1
  3153 ;; Hardware stack levels required when called: 2
  3154 ;; This function calls:
  3155 ;;		Nothing
  3156 ;; This function is called by:
  3157 ;;		_configuracion
  3158 ;; This function uses a non-reentrant model
  3159 ;;
  3160                           
  3161                           
  3162                           ;psect for function _initSPI_maestro
  3163  05BA                     _initSPI_maestro:
  3164                           
  3165                           ;incstack = 0
  3166                           ; Regs used in _initSPI_maestro: [wreg+status,2+status,0]
  3167                           ;initSPI_maestro@SPIfosc stored from wreg
  3168  05BA  1283               	bcf	3,5	;RP0=0, select bank0
  3169  05BB  1303               	bcf	3,6	;RP1=0, select bank0
  3170  05BC  00A0               	movwf	initSPI_maestro@SPIfosc
  3171  05BD                     l1539:
  3172                           
  3173                           ;C:/Users/david/DavidU/ElectronicaDigital2/Laboratorio2/Laboratorio/Lab2dig2.X/confPIC16
      +                          F887.c: 204:     SSPCONbits.SSPEN=0;
  3174  05BD  1294               	bcf	20,5	;volatile
  3175                           
  3176                           ;C:/Users/david/DavidU/ElectronicaDigital2/Laboratorio2/Laboratorio/Lab2dig2.X/confPIC16
      +                          F887.c: 206:     SSPSTATbits.SMP=1;
  3177  05BE  1683               	bsf	3,5	;RP0=1, select bank1
  3178  05BF  1303               	bcf	3,6	;RP1=0, select bank1
  3179  05C0  1794               	bsf	20,7	;volatile
  3180                           
  3181                           ;C:/Users/david/DavidU/ElectronicaDigital2/Laboratorio2/Laboratorio/Lab2dig2.X/confPIC16
      +                          F887.c: 208:     SSPCONbits.CKP=0;
  3182  05C1  1283               	bcf	3,5	;RP0=0, select bank0
  3183  05C2  1303               	bcf	3,6	;RP1=0, select bank0
  3184  05C3  1214               	bcf	20,4	;volatile
  3185                           
  3186                           ;C:/Users/david/DavidU/ElectronicaDigital2/Laboratorio2/Laboratorio/Lab2dig2.X/confPIC16
      +                          F887.c: 209:     SSPSTATbits.CKE=0;
  3187  05C4  1683               	bsf	3,5	;RP0=1, select bank1
  3188  05C5  1303               	bcf	3,6	;RP1=0, select bank1
  3189  05C6  1314               	bcf	20,6	;volatile
  3190  05C7                     l1541:
  3191                           
  3192                           ;C:/Users/david/DavidU/ElectronicaDigital2/Laboratorio2/Laboratorio/Lab2dig2.X/confPIC16
      +                          F887.c: 211:     SSPCONbits.SSPM=SPIfosc;
  3193  05C7  1283               	bcf	3,5	;RP0=0, select bank0
  3194  05C8  1303               	bcf	3,6	;RP1=0, select bank0
  3195  05C9  0814               	movf	20,w	;volatile
  3196  05CA  0620               	xorwf	initSPI_maestro@SPIfosc,w
  3197  05CB  39F0               	andlw	-16
  3198  05CC  0620               	xorwf	initSPI_maestro@SPIfosc,w
  3199  05CD  0094               	movwf	20	;volatile
  3200  05CE                     l1543:
  3201                           
  3202                           ;C:/Users/david/DavidU/ElectronicaDigital2/Laboratorio2/Laboratorio/Lab2dig2.X/confPIC16
      +                          F887.c: 213:     TRISCbits.TRISC4=1;
  3203  05CE  1683               	bsf	3,5	;RP0=1, select bank1
  3204  05CF  1303               	bcf	3,6	;RP1=0, select bank1
  3205  05D0  1607               	bsf	7,4	;volatile
  3206  05D1                     l1545:
  3207                           
  3208                           ;C:/Users/david/DavidU/ElectronicaDigital2/Laboratorio2/Laboratorio/Lab2dig2.X/confPIC16
      +                          F887.c: 214:     TRISCbits.TRISC5=0;
  3209  05D1  1287               	bcf	7,5	;volatile
  3210  05D2                     l1547:
  3211                           
  3212                           ;C:/Users/david/DavidU/ElectronicaDigital2/Laboratorio2/Laboratorio/Lab2dig2.X/confPIC16
      +                          F887.c: 215:     TRISCbits.TRISC3=0;
  3213  05D2  1187               	bcf	7,3	;volatile
  3214  05D3                     l1549:
  3215                           
  3216                           ;C:/Users/david/DavidU/ElectronicaDigital2/Laboratorio2/Laboratorio/Lab2dig2.X/confPIC16
      +                          F887.c: 217:     SSPCONbits.SSPEN=1;
  3217  05D3  1283               	bcf	3,5	;RP0=0, select bank0
  3218  05D4  1303               	bcf	3,6	;RP1=0, select bank0
  3219  05D5  1694               	bsf	20,5	;volatile
  3220  05D6                     l253:
  3221  05D6  0008               	return
  3222  05D7                     __end_of_initSPI_maestro:
  3223                           
  3224                           	psect	text15
  3225  06A0                     __ptext15:	
  3226 ;; *************** function _T1enableInterrupt *****************
  3227 ;; Defined at:
  3228 ;;		line 195 in file "C:/Users/david/DavidU/ElectronicaDigital2/Laboratorio2/Laboratorio/Lab2dig2.X/confPIC16F887.c"
  3229 ;; Parameters:    Size  Location     Type
  3230 ;;		None
  3231 ;; Auto vars:     Size  Location     Type
  3232 ;;		None
  3233 ;; Return value:  Size  Location     Type
  3234 ;;                  1    wreg      void 
  3235 ;; Registers used:
  3236 ;;		None
  3237 ;; Tracked objects:
  3238 ;;		On entry : 0/0
  3239 ;;		On exit  : 0/0
  3240 ;;		Unchanged: 0/0
  3241 ;; Data sizes:     COMMON   BANK0   BANK1   BANK3   BANK2
  3242 ;;      Params:         0       0       0       0       0
  3243 ;;      Locals:         0       0       0       0       0
  3244 ;;      Temps:          0       0       0       0       0
  3245 ;;      Totals:         0       0       0       0       0
  3246 ;;Total ram usage:        0 bytes
  3247 ;; Hardware stack levels used: 1
  3248 ;; Hardware stack levels required when called: 2
  3249 ;; This function calls:
  3250 ;;		Nothing
  3251 ;; This function is called by:
  3252 ;;		_configuracion
  3253 ;; This function uses a non-reentrant model
  3254 ;;
  3255                           
  3256                           
  3257                           ;psect for function _T1enableInterrupt
  3258  06A0                     _T1enableInterrupt:
  3259  06A0                     l1579:	
  3260                           ;incstack = 0
  3261                           ; Regs used in _T1enableInterrupt: []
  3262                           
  3263                           
  3264                           ;C:/Users/david/DavidU/ElectronicaDigital2/Laboratorio2/Laboratorio/Lab2dig2.X/confPIC16
      +                          F887.c: 196:     PIE1bits.TMR1IE=1;
  3265  06A0  1683               	bsf	3,5	;RP0=1, select bank1
  3266  06A1  1303               	bcf	3,6	;RP1=0, select bank1
  3267  06A2  140C               	bsf	12,0	;volatile
  3268                           
  3269                           ;C:/Users/david/DavidU/ElectronicaDigital2/Laboratorio2/Laboratorio/Lab2dig2.X/confPIC16
      +                          F887.c: 197:     PIR1bits.TMR1IF=0;
  3270  06A3  1283               	bcf	3,5	;RP0=0, select bank0
  3271  06A4  1303               	bcf	3,6	;RP1=0, select bank0
  3272  06A5  100C               	bcf	12,0	;volatile
  3273  06A6                     l250:
  3274  06A6  0008               	return
  3275  06A7                     __end_of_T1enableInterrupt:
  3276                           
  3277                           	psect	text16
  3278  04C6                     __ptext16:	
  3279 ;; *************** function ___wmul *****************
  3280 ;; Defined at:
  3281 ;;		line 15 in file "C:\Program Files\Microchip\xc8\v2.32\pic\sources\c90\common\Umul16.c"
  3282 ;; Parameters:    Size  Location     Type
  3283 ;;  multiplier      2    0[BANK0 ] unsigned int 
  3284 ;;  multiplicand    2    2[BANK0 ] unsigned int 
  3285 ;; Auto vars:     Size  Location     Type
  3286 ;;  product         2    4[BANK0 ] unsigned int 
  3287 ;; Return value:  Size  Location     Type
  3288 ;;                  2    0[BANK0 ] unsigned int 
  3289 ;; Registers used:
  3290 ;;		wreg, status,2, status,0
  3291 ;; Tracked objects:
  3292 ;;		On entry : 0/0
  3293 ;;		On exit  : 0/0
  3294 ;;		Unchanged: 0/0
  3295 ;; Data sizes:     COMMON   BANK0   BANK1   BANK3   BANK2
  3296 ;;      Params:         0       4       0       0       0
  3297 ;;      Locals:         0       2       0       0       0
  3298 ;;      Temps:          0       0       0       0       0
  3299 ;;      Totals:         0       6       0       0       0
  3300 ;;Total ram usage:        6 bytes
  3301 ;; Hardware stack levels used: 1
  3302 ;; Hardware stack levels required when called: 2
  3303 ;; This function calls:
  3304 ;;		Nothing
  3305 ;; This function is called by:
  3306 ;;		_main
  3307 ;; This function uses a non-reentrant model
  3308 ;;
  3309                           
  3310                           
  3311                           ;psect for function ___wmul
  3312  04C6                     ___wmul:
  3313  04C6                     l1831:	
  3314                           ;incstack = 0
  3315                           ; Regs used in ___wmul: [wreg+status,2+status,0]
  3316                           
  3317  04C6  1283               	bcf	3,5	;RP0=0, select bank0
  3318  04C7  1303               	bcf	3,6	;RP1=0, select bank0
  3319  04C8  01A4               	clrf	___wmul@product
  3320  04C9  01A5               	clrf	___wmul@product+1
  3321  04CA                     l1833:
  3322  04CA  1C20               	btfss	___wmul@multiplier,0
  3323  04CB  2CCD               	goto	u721
  3324  04CC  2CCE               	goto	u720
  3325  04CD                     u721:
  3326  04CD  2CD4               	goto	l429
  3327  04CE                     u720:
  3328  04CE                     l1835:
  3329  04CE  0822               	movf	___wmul@multiplicand,w
  3330  04CF  07A4               	addwf	___wmul@product,f
  3331  04D0  1803               	skipnc
  3332  04D1  0AA5               	incf	___wmul@product+1,f
  3333  04D2  0823               	movf	___wmul@multiplicand+1,w
  3334  04D3  07A5               	addwf	___wmul@product+1,f
  3335  04D4                     l429:
  3336  04D4  3001               	movlw	1
  3337  04D5                     u735:
  3338  04D5  1003               	clrc
  3339  04D6  0DA2               	rlf	___wmul@multiplicand,f
  3340  04D7  0DA3               	rlf	___wmul@multiplicand+1,f
  3341  04D8  3EFF               	addlw	-1
  3342  04D9  1D03               	skipz
  3343  04DA  2CD5               	goto	u735
  3344  04DB                     l1837:
  3345  04DB  3001               	movlw	1
  3346  04DC                     u745:
  3347  04DC  1003               	clrc
  3348  04DD  0CA1               	rrf	___wmul@multiplier+1,f
  3349  04DE  0CA0               	rrf	___wmul@multiplier,f
  3350  04DF  3EFF               	addlw	-1
  3351  04E0  1D03               	skipz
  3352  04E1  2CDC               	goto	u745
  3353  04E2                     l1839:
  3354  04E2  0820               	movf	___wmul@multiplier,w
  3355  04E3  0421               	iorwf	___wmul@multiplier+1,w
  3356  04E4  1D03               	btfss	3,2
  3357  04E5  2CE7               	goto	u751
  3358  04E6  2CE8               	goto	u750
  3359  04E7                     u751:
  3360  04E7  2CCA               	goto	l1833
  3361  04E8                     u750:
  3362  04E8                     l1841:
  3363  04E8  0825               	movf	___wmul@product+1,w
  3364  04E9  00A1               	movwf	?___wmul+1
  3365  04EA  0824               	movf	___wmul@product,w
  3366  04EB  00A0               	movwf	?___wmul
  3367  04EC                     l431:
  3368  04EC  0008               	return
  3369  04ED                     __end_of___wmul:
  3370                           
  3371                           	psect	text17
  3372  0436                     __ptext17:	
  3373 ;; *************** function _UARTprintText *****************
  3374 ;; Defined at:
  3375 ;;		line 296 in file "C:/Users/david/DavidU/ElectronicaDigital2/Laboratorio2/Laboratorio/Lab2dig2.X/confPIC16F887.c"
  3376 ;; Parameters:    Size  Location     Type
  3377 ;;  texto           2    4[BANK0 ] PTR unsigned char 
  3378 ;;		 -> STR_4(3), STR_3(15), main@tempTexto(4), main@contTexto(4), 
  3379 ;;		 -> main@potTexto(5), 
  3380 ;; Auto vars:     Size  Location     Type
  3381 ;;  i               1    8[BANK0 ] unsigned char 
  3382 ;; Return value:  Size  Location     Type
  3383 ;;                  1    wreg      void 
  3384 ;; Registers used:
  3385 ;;		wreg, fsr0l, fsr0h, status,2, status,0, btemp+1, pclath, cstack
  3386 ;; Tracked objects:
  3387 ;;		On entry : 0/0
  3388 ;;		On exit  : 0/0
  3389 ;;		Unchanged: 0/0
  3390 ;; Data sizes:     COMMON   BANK0   BANK1   BANK3   BANK2
  3391 ;;      Params:         0       2       0       0       0
  3392 ;;      Locals:         0       1       0       0       0
  3393 ;;      Temps:          0       2       0       0       0
  3394 ;;      Totals:         0       5       0       0       0
  3395 ;;Total ram usage:        5 bytes
  3396 ;; Hardware stack levels used: 1
  3397 ;; Hardware stack levels required when called: 3
  3398 ;; This function calls:
  3399 ;;		_UARTprintCharacter
  3400 ;;		_strlen
  3401 ;; This function is called by:
  3402 ;;		_main
  3403 ;; This function uses a non-reentrant model
  3404 ;;
  3405                           
  3406                           
  3407                           ;psect for function _UARTprintText
  3408  0436                     _UARTprintText:
  3409  0436                     l1819:	
  3410                           ;incstack = 0
  3411                           ; Regs used in _UARTprintText: [wreg-fsr0h+status,2+status,0+btemp+1+pclath+cstack]
  3412                           
  3413                           
  3414                           ;C:/Users/david/DavidU/ElectronicaDigital2/Laboratorio2/Laboratorio/Lab2dig2.X/confPIC16
      +                          F887.c: 297:     uint8_t i;;C:/Users/david/DavidU/ElectronicaDigital2/Laboratorio2/Labor
      +                          atorio/Lab2dig2.X/confPIC16F887.c: 298:     for(i=0;i<=strlen(texto);i++){
  3415  0436  1283               	bcf	3,5	;RP0=0, select bank0
  3416  0437  1303               	bcf	3,6	;RP1=0, select bank0
  3417  0438  01A8               	clrf	UARTprintText@i
  3418  0439  2C51               	goto	l1825
  3419  043A                     l1821:
  3420                           
  3421                           ;C:/Users/david/DavidU/ElectronicaDigital2/Laboratorio2/Laboratorio/Lab2dig2.X/confPIC16
      +                          F887.c: 299:         UARTprintCharacter(texto[i]);
  3422  043A  0828               	movf	UARTprintText@i,w
  3423  043B  0724               	addwf	UARTprintText@texto,w
  3424  043C  0084               	movwf	4
  3425  043D  0825               	movf	UARTprintText@texto+1,w
  3426  043E  1803               	skipnc
  3427  043F  0A25               	incf	UARTprintText@texto+1,w
  3428  0440  00FF               	movwf	btemp+1
  3429  0441  120A  118A  255A  120A  118A  	fcall	stringtab
  3430  0446  120A  118A  268A  120A  118A  	fcall	_UARTprintCharacter
  3431  044B                     l1823:
  3432                           
  3433                           ;C:/Users/david/DavidU/ElectronicaDigital2/Laboratorio2/Laboratorio/Lab2dig2.X/confPIC16
      +                          F887.c: 300:     }
  3434  044B  3001               	movlw	1
  3435  044C  1283               	bcf	3,5	;RP0=0, select bank0
  3436  044D  1303               	bcf	3,6	;RP1=0, select bank0
  3437  044E  00A6               	movwf	??_UARTprintText
  3438  044F  0826               	movf	??_UARTprintText,w
  3439  0450  07A8               	addwf	UARTprintText@i,f
  3440  0451                     l1825:
  3441  0451  0828               	movf	UARTprintText@i,w
  3442  0452  00A6               	movwf	??_UARTprintText
  3443  0453  01A7               	clrf	??_UARTprintText+1
  3444  0454  0824               	movf	UARTprintText@texto,w
  3445  0455  00A0               	movwf	strlen@s
  3446  0456  0825               	movf	UARTprintText@texto+1,w
  3447  0457  00A1               	movwf	strlen@s+1
  3448  0458  120A  118A  2536  120A  118A  	fcall	_strlen
  3449  045D  1283               	bcf	3,5	;RP0=0, select bank0
  3450  045E  1303               	bcf	3,6	;RP1=0, select bank0
  3451  045F  0827               	movf	??_UARTprintText+1,w
  3452  0460  0221               	subwf	?_strlen+1,w
  3453  0461  1D03               	skipz
  3454  0462  2C65               	goto	u705
  3455  0463  0826               	movf	??_UARTprintText,w
  3456  0464  0220               	subwf	?_strlen,w
  3457  0465                     u705:
  3458  0465  1803               	skipnc
  3459  0466  2C68               	goto	u701
  3460  0467  2C69               	goto	u700
  3461  0468                     u701:
  3462  0468  2C3A               	goto	l1821
  3463  0469                     u700:
  3464  0469                     l295:
  3465  0469  0008               	return
  3466  046A                     __end_of_UARTprintText:
  3467                           
  3468                           	psect	text18
  3469  068A                     __ptext18:	
  3470 ;; *************** function _UARTprintCharacter *****************
  3471 ;; Defined at:
  3472 ;;		line 286 in file "C:/Users/david/DavidU/ElectronicaDigital2/Laboratorio2/Laboratorio/Lab2dig2.X/confPIC16F887.c"
  3473 ;; Parameters:    Size  Location     Type
  3474 ;;  caracter        1    wreg     unsigned char 
  3475 ;; Auto vars:     Size  Location     Type
  3476 ;;  caracter        1    0[BANK0 ] unsigned char 
  3477 ;; Return value:  Size  Location     Type
  3478 ;;                  1    wreg      void 
  3479 ;; Registers used:
  3480 ;;		wreg
  3481 ;; Tracked objects:
  3482 ;;		On entry : 0/0
  3483 ;;		On exit  : 0/0
  3484 ;;		Unchanged: 0/0
  3485 ;; Data sizes:     COMMON   BANK0   BANK1   BANK3   BANK2
  3486 ;;      Params:         0       0       0       0       0
  3487 ;;      Locals:         0       1       0       0       0
  3488 ;;      Temps:          0       0       0       0       0
  3489 ;;      Totals:         0       1       0       0       0
  3490 ;;Total ram usage:        1 bytes
  3491 ;; Hardware stack levels used: 1
  3492 ;; Hardware stack levels required when called: 2
  3493 ;; This function calls:
  3494 ;;		Nothing
  3495 ;; This function is called by:
  3496 ;;		_main
  3497 ;;		_UARTprintText
  3498 ;; This function uses a non-reentrant model
  3499 ;;
  3500                           
  3501                           
  3502                           ;psect for function _UARTprintCharacter
  3503  068A                     _UARTprintCharacter:
  3504                           
  3505                           ;incstack = 0
  3506                           ; Regs used in _UARTprintCharacter: [wreg]
  3507                           ;UARTprintCharacter@caracter stored from wreg
  3508  068A  1283               	bcf	3,5	;RP0=0, select bank0
  3509  068B  1303               	bcf	3,6	;RP1=0, select bank0
  3510  068C  00A0               	movwf	UARTprintCharacter@caracter
  3511  068D                     l1529:
  3512  068D                     l280:	
  3513                           ;C:/Users/david/DavidU/ElectronicaDigital2/Laboratorio2/Laboratorio/Lab2dig2.X/confPIC16
      +                          F887.c: 287:     while(!TXSTAbits.TRMT);
  3514                           
  3515  068D  1683               	bsf	3,5	;RP0=1, select bank1
  3516  068E  1303               	bcf	3,6	;RP1=0, select bank1
  3517  068F  1C98               	btfss	24,1	;volatile
  3518  0690  2E92               	goto	u401
  3519  0691  2E93               	goto	u400
  3520  0692                     u401:
  3521  0692  2E8D               	goto	l280
  3522  0693                     u400:
  3523  0693                     l1531:
  3524                           
  3525                           ;C:/Users/david/DavidU/ElectronicaDigital2/Laboratorio2/Laboratorio/Lab2dig2.X/confPIC16
      +                          F887.c: 288:     TXREG=caracter;
  3526  0693  1283               	bcf	3,5	;RP0=0, select bank0
  3527  0694  1303               	bcf	3,6	;RP1=0, select bank0
  3528  0695  0820               	movf	UARTprintCharacter@caracter,w
  3529  0696  0099               	movwf	25	;volatile
  3530  0697                     l283:
  3531  0697  0008               	return
  3532  0698                     __end_of_UARTprintCharacter:
  3533                           
  3534                           	psect	text19
  3535  066C                     __ptext19:	
  3536 ;; *************** function _UARTprintDigit *****************
  3537 ;; Defined at:
  3538 ;;		line 291 in file "C:/Users/david/DavidU/ElectronicaDigital2/Laboratorio2/Laboratorio/Lab2dig2.X/confPIC16F887.c"
  3539 ;; Parameters:    Size  Location     Type
  3540 ;;  digito          1    wreg     unsigned char 
  3541 ;; Auto vars:     Size  Location     Type
  3542 ;;  digito          1    0[BANK0 ] unsigned char 
  3543 ;; Return value:  Size  Location     Type
  3544 ;;                  1    wreg      void 
  3545 ;; Registers used:
  3546 ;;		wreg, status,2, status,0
  3547 ;; Tracked objects:
  3548 ;;		On entry : 0/0
  3549 ;;		On exit  : 0/0
  3550 ;;		Unchanged: 0/0
  3551 ;; Data sizes:     COMMON   BANK0   BANK1   BANK3   BANK2
  3552 ;;      Params:         0       0       0       0       0
  3553 ;;      Locals:         0       1       0       0       0
  3554 ;;      Temps:          0       0       0       0       0
  3555 ;;      Totals:         0       1       0       0       0
  3556 ;;Total ram usage:        1 bytes
  3557 ;; Hardware stack levels used: 1
  3558 ;; Hardware stack levels required when called: 2
  3559 ;; This function calls:
  3560 ;;		Nothing
  3561 ;; This function is called by:
  3562 ;;		_main
  3563 ;; This function uses a non-reentrant model
  3564 ;;
  3565                           
  3566                           
  3567                           ;psect for function _UARTprintDigit
  3568  066C                     _UARTprintDigit:
  3569                           
  3570                           ;incstack = 0
  3571                           ; Regs used in _UARTprintDigit: [wreg+status,2+status,0]
  3572                           ;UARTprintDigit@digito stored from wreg
  3573  066C  1283               	bcf	3,5	;RP0=0, select bank0
  3574  066D  1303               	bcf	3,6	;RP1=0, select bank0
  3575  066E  00A0               	movwf	UARTprintDigit@digito
  3576  066F                     l1827:
  3577  066F                     l286:	
  3578                           ;C:/Users/david/DavidU/ElectronicaDigital2/Laboratorio2/Laboratorio/Lab2dig2.X/confPIC16
      +                          F887.c: 292:     while(!TXSTAbits.TRMT);
  3579                           
  3580  066F  1683               	bsf	3,5	;RP0=1, select bank1
  3581  0670  1303               	bcf	3,6	;RP1=0, select bank1
  3582  0671  1C98               	btfss	24,1	;volatile
  3583  0672  2E74               	goto	u711
  3584  0673  2E75               	goto	u710
  3585  0674                     u711:
  3586  0674  2E6F               	goto	l286
  3587  0675                     u710:
  3588  0675                     l1829:
  3589                           
  3590                           ;C:/Users/david/DavidU/ElectronicaDigital2/Laboratorio2/Laboratorio/Lab2dig2.X/confPIC16
      +                          F887.c: 293:     TXREG=digito+48;
  3591  0675  1283               	bcf	3,5	;RP0=0, select bank0
  3592  0676  1303               	bcf	3,6	;RP1=0, select bank0
  3593  0677  0820               	movf	UARTprintDigit@digito,w
  3594  0678  3E30               	addlw	48
  3595  0679  0099               	movwf	25	;volatile
  3596  067A                     l289:
  3597  067A  0008               	return
  3598  067B                     __end_of_UARTprintDigit:
  3599                           
  3600                           	psect	text20
  3601  06AE                     __ptext20:	
  3602 ;; *************** function _SPIsendValue *****************
  3603 ;; Defined at:
  3604 ;;		line 256 in file "C:/Users/david/DavidU/ElectronicaDigital2/Laboratorio2/Laboratorio/Lab2dig2.X/confPIC16F887.c"
  3605 ;; Parameters:    Size  Location     Type
  3606 ;;  valor           1    wreg     unsigned char 
  3607 ;; Auto vars:     Size  Location     Type
  3608 ;;  valor           1    0[BANK0 ] unsigned char 
  3609 ;; Return value:  Size  Location     Type
  3610 ;;                  1    wreg      void 
  3611 ;; Registers used:
  3612 ;;		wreg
  3613 ;; Tracked objects:
  3614 ;;		On entry : 0/0
  3615 ;;		On exit  : 0/0
  3616 ;;		Unchanged: 0/0
  3617 ;; Data sizes:     COMMON   BANK0   BANK1   BANK3   BANK2
  3618 ;;      Params:         0       0       0       0       0
  3619 ;;      Locals:         0       1       0       0       0
  3620 ;;      Temps:          0       0       0       0       0
  3621 ;;      Totals:         0       1       0       0       0
  3622 ;;Total ram usage:        1 bytes
  3623 ;; Hardware stack levels used: 1
  3624 ;; Hardware stack levels required when called: 2
  3625 ;; This function calls:
  3626 ;;		Nothing
  3627 ;; This function is called by:
  3628 ;;		_main
  3629 ;; This function uses a non-reentrant model
  3630 ;;
  3631                           
  3632                           
  3633                           ;psect for function _SPIsendValue
  3634  06AE                     _SPIsendValue:
  3635                           
  3636                           ;incstack = 0
  3637                           ; Regs used in _SPIsendValue: [wreg]
  3638                           ;SPIsendValue@valor stored from wreg
  3639  06AE  1283               	bcf	3,5	;RP0=0, select bank0
  3640  06AF  1303               	bcf	3,6	;RP1=0, select bank0
  3641  06B0  00A0               	movwf	SPIsendValue@valor
  3642  06B1                     l1787:
  3643                           
  3644                           ;C:/Users/david/DavidU/ElectronicaDigital2/Laboratorio2/Laboratorio/Lab2dig2.X/confPIC16
      +                          F887.c: 257:     SSPBUF=valor;
  3645  06B1  0820               	movf	SPIsendValue@valor,w
  3646  06B2  0093               	movwf	19	;volatile
  3647  06B3                     l265:
  3648  06B3  0008               	return
  3649  06B4                     __end_of_SPIsendValue:
  3650                           
  3651                           	psect	text21
  3652  064A                     __ptext21:	
  3653 ;; *************** function _SPIreadValue *****************
  3654 ;; Defined at:
  3655 ;;		line 264 in file "C:/Users/david/DavidU/ElectronicaDigital2/Laboratorio2/Laboratorio/Lab2dig2.X/confPIC16F887.c"
  3656 ;; Parameters:    Size  Location     Type
  3657 ;;  variable        1    wreg     PTR unsigned char 
  3658 ;;		 -> temp(1), cont(1), pot(1), 
  3659 ;; Auto vars:     Size  Location     Type
  3660 ;;  variable        1    1[BANK0 ] PTR unsigned char 
  3661 ;;		 -> temp(1), cont(1), pot(1), 
  3662 ;; Return value:  Size  Location     Type
  3663 ;;                  1    wreg      void 
  3664 ;; Registers used:
  3665 ;;		wreg, fsr0l, fsr0h, status,2, status,0, pclath, cstack
  3666 ;; Tracked objects:
  3667 ;;		On entry : 0/0
  3668 ;;		On exit  : 0/0
  3669 ;;		Unchanged: 0/0
  3670 ;; Data sizes:     COMMON   BANK0   BANK1   BANK3   BANK2
  3671 ;;      Params:         0       0       0       0       0
  3672 ;;      Locals:         0       1       0       0       0
  3673 ;;      Temps:          0       1       0       0       0
  3674 ;;      Totals:         0       2       0       0       0
  3675 ;;Total ram usage:        2 bytes
  3676 ;; Hardware stack levels used: 1
  3677 ;; Hardware stack levels required when called: 3
  3678 ;; This function calls:
  3679 ;;		_SPIBufferVerify
  3680 ;; This function is called by:
  3681 ;;		_main
  3682 ;; This function uses a non-reentrant model
  3683 ;;
  3684                           
  3685                           
  3686                           ;psect for function _SPIreadValue
  3687  064A                     _SPIreadValue:
  3688                           
  3689                           ;incstack = 0
  3690                           ; Regs used in _SPIreadValue: [wreg-fsr0h+status,2+status,0+pclath+cstack]
  3691                           ;SPIreadValue@variable stored from wreg
  3692  064A  1283               	bcf	3,5	;RP0=0, select bank0
  3693  064B  1303               	bcf	3,6	;RP1=0, select bank0
  3694  064C  00A1               	movwf	SPIreadValue@variable
  3695  064D                     l1789:
  3696                           
  3697                           ;C:/Users/david/DavidU/ElectronicaDigital2/Laboratorio2/Laboratorio/Lab2dig2.X/confPIC16
      +                          F887.c: 265:     SPIBufferVerify();
  3698  064D  120A  118A  26A7  120A  118A  	fcall	_SPIBufferVerify
  3699  0652                     l1791:
  3700                           
  3701                           ;C:/Users/david/DavidU/ElectronicaDigital2/Laboratorio2/Laboratorio/Lab2dig2.X/confPIC16
      +                          F887.c: 266:     *variable = SSPBUF;
  3702  0652  1283               	bcf	3,5	;RP0=0, select bank0
  3703  0653  1303               	bcf	3,6	;RP1=0, select bank0
  3704  0654  0813               	movf	19,w	;volatile
  3705  0655  00A0               	movwf	??_SPIreadValue
  3706  0656  0821               	movf	SPIreadValue@variable,w
  3707  0657  0084               	movwf	4
  3708  0658  0820               	movf	??_SPIreadValue,w
  3709  0659  1383               	bcf	3,7	;select IRP bank0
  3710  065A  0080               	movwf	0
  3711  065B                     l274:
  3712  065B  0008               	return
  3713  065C                     __end_of_SPIreadValue:
  3714                           
  3715                           	psect	text22
  3716  06A7                     __ptext22:	
  3717 ;; *************** function _SPIBufferVerify *****************
  3718 ;; Defined at:
  3719 ;;		line 260 in file "C:/Users/david/DavidU/ElectronicaDigital2/Laboratorio2/Laboratorio/Lab2dig2.X/confPIC16F887.c"
  3720 ;; Parameters:    Size  Location     Type
  3721 ;;		None
  3722 ;; Auto vars:     Size  Location     Type
  3723 ;;		None
  3724 ;; Return value:  Size  Location     Type
  3725 ;;                  1    wreg      void 
  3726 ;; Registers used:
  3727 ;;		None
  3728 ;; Tracked objects:
  3729 ;;		On entry : 0/0
  3730 ;;		On exit  : 0/0
  3731 ;;		Unchanged: 0/0
  3732 ;; Data sizes:     COMMON   BANK0   BANK1   BANK3   BANK2
  3733 ;;      Params:         0       0       0       0       0
  3734 ;;      Locals:         0       0       0       0       0
  3735 ;;      Temps:          0       0       0       0       0
  3736 ;;      Totals:         0       0       0       0       0
  3737 ;;Total ram usage:        0 bytes
  3738 ;; Hardware stack levels used: 1
  3739 ;; Hardware stack levels required when called: 2
  3740 ;; This function calls:
  3741 ;;		Nothing
  3742 ;; This function is called by:
  3743 ;;		_SPIreadValue
  3744 ;; This function uses a non-reentrant model
  3745 ;;
  3746                           
  3747                           
  3748                           ;psect for function _SPIBufferVerify
  3749  06A7                     _SPIBufferVerify:
  3750  06A7                     l1581:	
  3751                           ;incstack = 0
  3752                           ; Regs used in _SPIBufferVerify: []
  3753                           
  3754  06A7                     l268:	
  3755                           ;C:/Users/david/DavidU/ElectronicaDigital2/Laboratorio2/Laboratorio/Lab2dig2.X/confPIC16
      +                          F887.c: 261:     while(!SSPSTATbits.BF);
  3756                           
  3757  06A7  1683               	bsf	3,5	;RP0=1, select bank1
  3758  06A8  1303               	bcf	3,6	;RP1=0, select bank1
  3759  06A9  1C14               	btfss	20,0	;volatile
  3760  06AA  2EAC               	goto	u411
  3761  06AB  2EAD               	goto	u410
  3762  06AC                     u411:
  3763  06AC  2EA7               	goto	l268
  3764  06AD                     u410:
  3765  06AD                     l271:
  3766  06AD  0008               	return
  3767  06AE                     __end_of_SPIBufferVerify:
  3768                           
  3769                           	psect	text23
  3770  046A                     __ptext23:	
  3771 ;; *************** function _LCDprintText *****************
  3772 ;; Defined at:
  3773 ;;		line 135 in file "LCDcontrol.c"
  3774 ;; Parameters:    Size  Location     Type
  3775 ;;  texto           2    4[BANK0 ] PTR unsigned char 
  3776 ;;		 -> STR_2(3), main@tempTexto(4), main@contTexto(4), main@potTexto(5), 
  3777 ;;		 -> STR_1(15), 
  3778 ;; Auto vars:     Size  Location     Type
  3779 ;;  i               1    8[BANK0 ] unsigned char 
  3780 ;; Return value:  Size  Location     Type
  3781 ;;                  1    wreg      void 
  3782 ;; Registers used:
  3783 ;;		wreg, fsr0l, fsr0h, status,2, status,0, btemp+1, pclath, cstack
  3784 ;; Tracked objects:
  3785 ;;		On entry : 0/0
  3786 ;;		On exit  : 0/0
  3787 ;;		Unchanged: 0/0
  3788 ;; Data sizes:     COMMON   BANK0   BANK1   BANK3   BANK2
  3789 ;;      Params:         0       2       0       0       0
  3790 ;;      Locals:         0       1       0       0       0
  3791 ;;      Temps:          0       2       0       0       0
  3792 ;;      Totals:         0       5       0       0       0
  3793 ;;Total ram usage:        5 bytes
  3794 ;; Hardware stack levels used: 1
  3795 ;; Hardware stack levels required when called: 4
  3796 ;; This function calls:
  3797 ;;		_LCD_wRAM
  3798 ;;		_strlen
  3799 ;; This function is called by:
  3800 ;;		_main
  3801 ;; This function uses a non-reentrant model
  3802 ;;
  3803                           
  3804                           
  3805                           ;psect for function _LCDprintText
  3806  046A                     _LCDprintText:
  3807  046A                     l1767:	
  3808                           ;incstack = 0
  3809                           ; Regs used in _LCDprintText: [wreg-fsr0h+status,2+status,0+btemp+1+pclath+cstack]
  3810                           
  3811                           
  3812                           ;LCDcontrol.c: 136:     uint8_t i;;LCDcontrol.c: 137:     for(i=0; i<strlen(texto); i++)
      +                          {
  3813  046A  1283               	bcf	3,5	;RP0=0, select bank0
  3814  046B  1303               	bcf	3,6	;RP1=0, select bank0
  3815  046C  01A8               	clrf	LCDprintText@i
  3816  046D  2C85               	goto	l1773
  3817  046E                     l1769:
  3818                           
  3819                           ;LCDcontrol.c: 138:         LCD_wRAM(texto[i]);
  3820  046E  0828               	movf	LCDprintText@i,w
  3821  046F  0724               	addwf	LCDprintText@texto,w
  3822  0470  0084               	movwf	4
  3823  0471  0825               	movf	LCDprintText@texto+1,w
  3824  0472  1803               	skipnc
  3825  0473  0A25               	incf	LCDprintText@texto+1,w
  3826  0474  00FF               	movwf	btemp+1
  3827  0475  120A  118A  255A  120A  118A  	fcall	stringtab
  3828  047A  120A  118A  2636  120A  118A  	fcall	_LCD_wRAM
  3829  047F                     l1771:
  3830                           
  3831                           ;LCDcontrol.c: 139:     }
  3832  047F  3001               	movlw	1
  3833  0480  1283               	bcf	3,5	;RP0=0, select bank0
  3834  0481  1303               	bcf	3,6	;RP1=0, select bank0
  3835  0482  00A6               	movwf	??_LCDprintText
  3836  0483  0826               	movf	??_LCDprintText,w
  3837  0484  07A8               	addwf	LCDprintText@i,f
  3838  0485                     l1773:
  3839  0485  0824               	movf	LCDprintText@texto,w
  3840  0486  00A0               	movwf	strlen@s
  3841  0487  0825               	movf	LCDprintText@texto+1,w
  3842  0488  00A1               	movwf	strlen@s+1
  3843  0489  120A  118A  2536  120A  118A  	fcall	_strlen
  3844  048E  1283               	bcf	3,5	;RP0=0, select bank0
  3845  048F  1303               	bcf	3,6	;RP1=0, select bank0
  3846  0490  0828               	movf	LCDprintText@i,w
  3847  0491  00A6               	movwf	??_LCDprintText
  3848  0492  01A7               	clrf	??_LCDprintText+1
  3849  0493  0821               	movf	?_strlen+1,w
  3850  0494  0227               	subwf	??_LCDprintText+1,w
  3851  0495  1D03               	skipz
  3852  0496  2C99               	goto	u675
  3853  0497  0820               	movf	?_strlen,w
  3854  0498  0226               	subwf	??_LCDprintText,w
  3855  0499                     u675:
  3856  0499  1C03               	skipc
  3857  049A  2C9C               	goto	u671
  3858  049B  2C9D               	goto	u670
  3859  049C                     u671:
  3860  049C  2C6E               	goto	l1769
  3861  049D                     u670:
  3862  049D                     l343:
  3863  049D  0008               	return
  3864  049E                     __end_of_LCDprintText:
  3865                           
  3866                           	psect	text24
  3867  0536                     __ptext24:	
  3868 ;; *************** function _strlen *****************
  3869 ;; Defined at:
  3870 ;;		line 4 in file "C:\Program Files\Microchip\xc8\v2.32\pic\sources\c90\common\strlen.c"
  3871 ;; Parameters:    Size  Location     Type
  3872 ;;  s               2    0[BANK0 ] PTR const unsigned char 
  3873 ;;		 -> STR_4(3), STR_3(15), STR_2(3), main@tempTexto(4), 
  3874 ;;		 -> main@contTexto(4), main@potTexto(5), STR_1(15), 
  3875 ;; Auto vars:     Size  Location     Type
  3876 ;;  cp              2    2[BANK0 ] PTR const unsigned char 
  3877 ;;		 -> STR_4(3), STR_3(15), STR_2(3), main@tempTexto(4), 
  3878 ;;		 -> main@contTexto(4), main@potTexto(5), STR_1(15), 
  3879 ;; Return value:  Size  Location     Type
  3880 ;;                  2    0[BANK0 ] unsigned int 
  3881 ;; Registers used:
  3882 ;;		wreg, fsr0l, fsr0h, status,2, status,0, btemp+1, pclath
  3883 ;; Tracked objects:
  3884 ;;		On entry : 0/0
  3885 ;;		On exit  : 0/0
  3886 ;;		Unchanged: 0/0
  3887 ;; Data sizes:     COMMON   BANK0   BANK1   BANK3   BANK2
  3888 ;;      Params:         0       2       0       0       0
  3889 ;;      Locals:         0       2       0       0       0
  3890 ;;      Temps:          0       0       0       0       0
  3891 ;;      Totals:         0       4       0       0       0
  3892 ;;Total ram usage:        4 bytes
  3893 ;; Hardware stack levels used: 1
  3894 ;; Hardware stack levels required when called: 2
  3895 ;; This function calls:
  3896 ;;		Nothing
  3897 ;; This function is called by:
  3898 ;;		_UARTprintText
  3899 ;;		_LCDprintText
  3900 ;; This function uses a non-reentrant model
  3901 ;;
  3902                           
  3903                           
  3904                           ;psect for function _strlen
  3905  0536                     _strlen:
  3906  0536                     l1583:	
  3907                           ;incstack = 0
  3908                           ; Regs used in _strlen: [wreg-fsr0h+status,2+status,0+btemp+1+pclath]
  3909                           
  3910  0536  1283               	bcf	3,5	;RP0=0, select bank0
  3911  0537  1303               	bcf	3,6	;RP1=0, select bank0
  3912  0538  0820               	movf	strlen@s,w
  3913  0539  00A2               	movwf	strlen@cp
  3914  053A  0821               	movf	strlen@s+1,w
  3915  053B  00A3               	movwf	strlen@cp+1
  3916  053C  2D43               	goto	l1587
  3917  053D                     l1585:
  3918  053D  3001               	movlw	1
  3919  053E  07A2               	addwf	strlen@cp,f
  3920  053F  1803               	skipnc
  3921  0540  0AA3               	incf	strlen@cp+1,f
  3922  0541  3000               	movlw	0
  3923  0542  07A3               	addwf	strlen@cp+1,f
  3924  0543                     l1587:
  3925  0543  0823               	movf	strlen@cp+1,w
  3926  0544  00FF               	movwf	btemp+1
  3927  0545  0822               	movf	strlen@cp,w
  3928  0546  0084               	movwf	4
  3929  0547  120A  118A  255A  120A  118A  	fcall	stringtab
  3930  054C  3A00               	xorlw	0
  3931  054D  1D03               	skipz
  3932  054E  2D50               	goto	u421
  3933  054F  2D51               	goto	u420
  3934  0550                     u421:
  3935  0550  2D3D               	goto	l1585
  3936  0551                     u420:
  3937  0551                     l1589:
  3938  0551  0820               	movf	strlen@s,w
  3939  0552  0222               	subwf	strlen@cp,w
  3940  0553  00A0               	movwf	?_strlen
  3941  0554  0821               	movf	strlen@s+1,w
  3942  0555  1C03               	skipc
  3943  0556  0A21               	incf	strlen@s+1,w
  3944  0557  0223               	subwf	strlen@cp+1,w
  3945  0558  00A1               	movwf	?_strlen+1
  3946  0559                     l883:
  3947  0559  0008               	return
  3948  055A                     __end_of_strlen:
  3949                           
  3950                           	psect	text25
  3951  0636                     __ptext25:	
  3952 ;; *************** function _LCD_wRAM *****************
  3953 ;; Defined at:
  3954 ;;		line 92 in file "LCDcontrol.c"
  3955 ;; Parameters:    Size  Location     Type
  3956 ;;  data            1    wreg     unsigned char 
  3957 ;; Auto vars:     Size  Location     Type
  3958 ;;  data            1    2[BANK0 ] unsigned char 
  3959 ;; Return value:  Size  Location     Type
  3960 ;;                  1    wreg      void 
  3961 ;; Registers used:
  3962 ;;		wreg, status,2, status,0, pclath, cstack
  3963 ;; Tracked objects:
  3964 ;;		On entry : 0/0
  3965 ;;		On exit  : 0/0
  3966 ;;		Unchanged: 0/0
  3967 ;; Data sizes:     COMMON   BANK0   BANK1   BANK3   BANK2
  3968 ;;      Params:         0       0       0       0       0
  3969 ;;      Locals:         0       1       0       0       0
  3970 ;;      Temps:          0       1       0       0       0
  3971 ;;      Totals:         0       2       0       0       0
  3972 ;;Total ram usage:        2 bytes
  3973 ;; Hardware stack levels used: 1
  3974 ;; Hardware stack levels required when called: 3
  3975 ;; This function calls:
  3976 ;;		_LCD_executeInstruction
  3977 ;; This function is called by:
  3978 ;;		_main
  3979 ;;		_LCDprintText
  3980 ;; This function uses a non-reentrant model
  3981 ;;
  3982                           
  3983                           
  3984                           ;psect for function _LCD_wRAM
  3985  0636                     _LCD_wRAM:
  3986                           
  3987                           ;incstack = 0
  3988                           ; Regs used in _LCD_wRAM: [wreg+status,2+status,0+pclath+cstack]
  3989                           ;LCD_wRAM@data stored from wreg
  3990  0636  1283               	bcf	3,5	;RP0=0, select bank0
  3991  0637  1303               	bcf	3,6	;RP1=0, select bank0
  3992  0638  00A2               	movwf	LCD_wRAM@data
  3993  0639                     l1521:
  3994                           
  3995                           ;LCDcontrol.c: 93:     PORTDbits.RD7=1;
  3996  0639  1788               	bsf	8,7	;volatile
  3997                           
  3998                           ;LCDcontrol.c: 94:     PORTDbits.RD5=0;
  3999  063A  1288               	bcf	8,5	;volatile
  4000  063B                     l1523:
  4001                           
  4002                           ;LCDcontrol.c: 95:     PORTB = data;
  4003  063B  0822               	movf	LCD_wRAM@data,w
  4004  063C  0086               	movwf	6	;volatile
  4005  063D                     l1525:
  4006                           
  4007                           ;LCDcontrol.c: 96:     LCD_executeInstruction();
  4008  063D  120A  118A  267B  120A  118A  	fcall	_LCD_executeInstruction
  4009  0642                     l1527:
  4010                           
  4011                           ;LCDcontrol.c: 97:     _delay((unsigned long)((50)*(8000000/4000000.0)));
  4012  0642  3020               	movlw	32
  4013  0643  1283               	bcf	3,5	;RP0=0, select bank0
  4014  0644  1303               	bcf	3,6	;RP1=0, select bank0
  4015  0645  00A1               	movwf	??_LCD_wRAM
  4016  0646                     u897:
  4017  0646  0BA1               	decfsz	??_LCD_wRAM,f
  4018  0647  2E46               	goto	u897
  4019  0648  0000               	nop
  4020  0649                     l331:
  4021  0649  0008               	return
  4022  064A                     __end_of_LCD_wRAM:
  4023                           
  4024                           	psect	text26
  4025  0621                     __ptext26:	
  4026 ;; *************** function _LCD_setDDRAM *****************
  4027 ;; Defined at:
  4028 ;;		line 82 in file "LCDcontrol.c"
  4029 ;; Parameters:    Size  Location     Type
  4030 ;;  address         1    wreg     unsigned char 
  4031 ;; Auto vars:     Size  Location     Type
  4032 ;;  address         1    2[BANK0 ] unsigned char 
  4033 ;; Return value:  Size  Location     Type
  4034 ;;                  1    wreg      void 
  4035 ;; Registers used:
  4036 ;;		wreg, status,2, status,0, pclath, cstack
  4037 ;; Tracked objects:
  4038 ;;		On entry : 0/0
  4039 ;;		On exit  : 0/0
  4040 ;;		Unchanged: 0/0
  4041 ;; Data sizes:     COMMON   BANK0   BANK1   BANK3   BANK2
  4042 ;;      Params:         0       0       0       0       0
  4043 ;;      Locals:         0       1       0       0       0
  4044 ;;      Temps:          0       1       0       0       0
  4045 ;;      Totals:         0       2       0       0       0
  4046 ;;Total ram usage:        2 bytes
  4047 ;; Hardware stack levels used: 1
  4048 ;; Hardware stack levels required when called: 3
  4049 ;; This function calls:
  4050 ;;		_LCD_executeInstruction
  4051 ;; This function is called by:
  4052 ;;		_main
  4053 ;; This function uses a non-reentrant model
  4054 ;;
  4055                           
  4056                           
  4057                           ;psect for function _LCD_setDDRAM
  4058  0621                     _LCD_setDDRAM:
  4059                           
  4060                           ;incstack = 0
  4061                           ; Regs used in _LCD_setDDRAM: [wreg+status,2+status,0+pclath+cstack]
  4062                           ;LCD_setDDRAM@address stored from wreg
  4063  0621  1283               	bcf	3,5	;RP0=0, select bank0
  4064  0622  1303               	bcf	3,6	;RP1=0, select bank0
  4065  0623  00A2               	movwf	LCD_setDDRAM@address
  4066  0624                     l1811:
  4067                           
  4068                           ;LCDcontrol.c: 83:     PORTDbits.RD7=0;
  4069  0624  1388               	bcf	8,7	;volatile
  4070                           
  4071                           ;LCDcontrol.c: 84:     PORTDbits.RD5=0;
  4072  0625  1288               	bcf	8,5	;volatile
  4073  0626                     l1813:
  4074                           
  4075                           ;LCDcontrol.c: 85:     PORTB = 0b10000000 + address;
  4076  0626  0822               	movf	LCD_setDDRAM@address,w
  4077  0627  3E80               	addlw	128
  4078  0628  0086               	movwf	6	;volatile
  4079  0629                     l1815:
  4080                           
  4081                           ;LCDcontrol.c: 86:     LCD_executeInstruction();
  4082  0629  120A  118A  267B  120A  118A  	fcall	_LCD_executeInstruction
  4083  062E                     l1817:
  4084                           
  4085                           ;LCDcontrol.c: 87:     _delay((unsigned long)((50)*(8000000/4000000.0)));
  4086  062E  3020               	movlw	32
  4087  062F  1283               	bcf	3,5	;RP0=0, select bank0
  4088  0630  1303               	bcf	3,6	;RP1=0, select bank0
  4089  0631  00A1               	movwf	??_LCD_setDDRAM
  4090  0632                     u907:
  4091  0632  0BA1               	decfsz	??_LCD_setDDRAM,f
  4092  0633  2E32               	goto	u907
  4093  0634  0000               	nop
  4094  0635                     l328:
  4095  0635  0008               	return
  4096  0636                     __end_of_LCD_setDDRAM:
  4097                           
  4098                           	psect	text27
  4099  067B                     __ptext27:	
  4100 ;; *************** function _LCD_executeInstruction *****************
  4101 ;; Defined at:
  4102 ;;		line 21 in file "LCDcontrol.c"
  4103 ;; Parameters:    Size  Location     Type
  4104 ;;		None
  4105 ;; Auto vars:     Size  Location     Type
  4106 ;;		None
  4107 ;; Return value:  Size  Location     Type
  4108 ;;                  1    wreg      void 
  4109 ;; Registers used:
  4110 ;;		wreg
  4111 ;; Tracked objects:
  4112 ;;		On entry : 0/0
  4113 ;;		On exit  : 0/0
  4114 ;;		Unchanged: 0/0
  4115 ;; Data sizes:     COMMON   BANK0   BANK1   BANK3   BANK2
  4116 ;;      Params:         0       0       0       0       0
  4117 ;;      Locals:         0       0       0       0       0
  4118 ;;      Temps:          0       1       0       0       0
  4119 ;;      Totals:         0       1       0       0       0
  4120 ;;Total ram usage:        1 bytes
  4121 ;; Hardware stack levels used: 1
  4122 ;; Hardware stack levels required when called: 2
  4123 ;; This function calls:
  4124 ;;		Nothing
  4125 ;; This function is called by:
  4126 ;;		_LCD_clearDisplay
  4127 ;;		_LCD_entryMode_set
  4128 ;;		_LCD_displayOnOff
  4129 ;;		_LCD_functionSet
  4130 ;;		_LCD_setDDRAM
  4131 ;;		_LCD_wRAM
  4132 ;;		_LCD_setCGRAM
  4133 ;;		_LCD_rRAM
  4134 ;; This function uses a non-reentrant model
  4135 ;;
  4136                           
  4137                           
  4138                           ;psect for function _LCD_executeInstruction
  4139  067B                     _LCD_executeInstruction:
  4140  067B                     l1515:	
  4141                           ;incstack = 0
  4142                           ; Regs used in _LCD_executeInstruction: [wreg]
  4143                           
  4144                           
  4145                           ;LCDcontrol.c: 22:     PORTDbits.RD6=1;
  4146  067B  1283               	bcf	3,5	;RP0=0, select bank0
  4147  067C  1303               	bcf	3,6	;RP1=0, select bank0
  4148  067D  1708               	bsf	8,6	;volatile
  4149  067E                     l1517:
  4150                           
  4151                           ;LCDcontrol.c: 23:     _delay((unsigned long)((500)*(8000000/4000000.0)));
  4152  067E  30C7               	movlw	199
  4153  067F  1283               	bcf	3,5	;RP0=0, select bank0
  4154  0680  1303               	bcf	3,6	;RP1=0, select bank0
  4155  0681  00A0               	movwf	??_LCD_executeInstruction
  4156  0682                     u917:
  4157  0682  2E83               	nop2
  4158  0683  0BA0               	decfsz	??_LCD_executeInstruction,f
  4159  0684  2E82               	goto	u917
  4160  0685  2E86               	nop2
  4161  0686                     l1519:
  4162                           
  4163                           ;LCDcontrol.c: 24:     PORTDbits.RD6=0;
  4164  0686  1283               	bcf	3,5	;RP0=0, select bank0
  4165  0687  1303               	bcf	3,6	;RP1=0, select bank0
  4166  0688  1308               	bcf	8,6	;volatile
  4167  0689                     l310:
  4168  0689  0008               	return
  4169  068A                     __end_of_LCD_executeInstruction:
  4170                           
  4171                           	psect	text28
  4172  05F2                     __ptext28:	
  4173 ;; *************** function _isr *****************
  4174 ;; Defined at:
  4175 ;;		line 66 in file "PIC1P1main.c"
  4176 ;; Parameters:    Size  Location     Type
  4177 ;;		None
  4178 ;; Auto vars:     Size  Location     Type
  4179 ;;		None
  4180 ;; Return value:  Size  Location     Type
  4181 ;;                  1    wreg      void 
  4182 ;; Registers used:
  4183 ;;		wreg, status,2, status,0, pclath, cstack
  4184 ;; Tracked objects:
  4185 ;;		On entry : 0/0
  4186 ;;		On exit  : 0/0
  4187 ;;		Unchanged: 0/0
  4188 ;; Data sizes:     COMMON   BANK0   BANK1   BANK3   BANK2
  4189 ;;      Params:         0       0       0       0       0
  4190 ;;      Locals:         0       0       0       0       0
  4191 ;;      Temps:          2       0       0       0       0
  4192 ;;      Totals:         2       0       0       0       0
  4193 ;;Total ram usage:        2 bytes
  4194 ;; Hardware stack levels used: 1
  4195 ;; Hardware stack levels required when called: 1
  4196 ;; This function calls:
  4197 ;;		_resTimer1
  4198 ;; This function is called by:
  4199 ;;		Interrupt level 1
  4200 ;; This function uses a non-reentrant model
  4201 ;;
  4202                           
  4203                           
  4204                           ;psect for function _isr
  4205  05F2                     _isr:
  4206  05F2                     i1l1845:
  4207                           
  4208                           ;PIC1P1main.c: 67:     if(PIR1bits.TMR1IF){
  4209  05F2  1283               	bcf	3,5	;RP0=0, select bank0
  4210  05F3  1303               	bcf	3,6	;RP1=0, select bank0
  4211  05F4  1C0C               	btfss	12,0	;volatile
  4212  05F5  2DF7               	goto	u76_21
  4213  05F6  2DF8               	goto	u76_20
  4214  05F7                     u76_21:
  4215  05F7  2E03               	goto	i1l90
  4216  05F8                     u76_20:
  4217  05F8                     i1l1847:
  4218                           
  4219                           ;PIC1P1main.c: 68:         comunicacion=1;
  4220  05F8  01D8               	clrf	_comunicacion
  4221  05F9  0AD8               	incf	_comunicacion,f
  4222  05FA                     i1l1849:
  4223                           
  4224                           ;PIC1P1main.c: 69:         resTimer1(3036);
  4225  05FA  30DC               	movlw	220
  4226  05FB  00F0               	movwf	resTimer1@carga
  4227  05FC  300B               	movlw	11
  4228  05FD  00F1               	movwf	resTimer1@carga+1
  4229  05FE  120A  118A  265C  120A  118A  	fcall	_resTimer1
  4230  0603                     i1l90:
  4231  0603  0876               	movf	??_isr+1,w
  4232  0604  008A               	movwf	10
  4233  0605  0E75               	swapf	??_isr,w
  4234  0606  0083               	movwf	3
  4235  0607  0EFE               	swapf	btemp,f
  4236  0608  0E7E               	swapf	btemp,w
  4237  0609  0009               	retfie
  4238  060A                     __end_of_isr:
  4239                           
  4240                           	psect	intentry
  4241  0004                     __pintentry:	
  4242                           ;incstack = 0
  4243                           ; Regs used in _isr: [wreg+status,2+status,0+pclath+cstack]
  4244                           
  4245  0004                     interrupt_function:
  4246  007E                     saved_w	set	btemp
  4247  0004  00FE               	movwf	btemp
  4248  0005  0E03               	swapf	3,w
  4249  0006  00F5               	movwf	??_isr
  4250  0007  080A               	movf	10,w
  4251  0008  00F6               	movwf	??_isr+1
  4252  0009  120A  118A  2DF2   	ljmp	_isr
  4253                           
  4254                           	psect	text29
  4255  065C                     __ptext29:	
  4256 ;; *************** function _resTimer1 *****************
  4257 ;; Defined at:
  4258 ;;		line 188 in file "C:/Users/david/DavidU/ElectronicaDigital2/Laboratorio2/Laboratorio/Lab2dig2.X/confPIC16F887.c"
  4259 ;; Parameters:    Size  Location     Type
  4260 ;;  carga           2    0[COMMON] int 
  4261 ;; Auto vars:     Size  Location     Type
  4262 ;;  T1H             1    4[COMMON] unsigned char 
  4263 ;;  T1L             1    3[COMMON] unsigned char 
  4264 ;; Return value:  Size  Location     Type
  4265 ;;                  1    wreg      void 
  4266 ;; Registers used:
  4267 ;;		wreg, status,2
  4268 ;; Tracked objects:
  4269 ;;		On entry : 0/0
  4270 ;;		On exit  : 0/0
  4271 ;;		Unchanged: 0/0
  4272 ;; Data sizes:     COMMON   BANK0   BANK1   BANK3   BANK2
  4273 ;;      Params:         2       0       0       0       0
  4274 ;;      Locals:         2       0       0       0       0
  4275 ;;      Temps:          1       0       0       0       0
  4276 ;;      Totals:         5       0       0       0       0
  4277 ;;Total ram usage:        5 bytes
  4278 ;; Hardware stack levels used: 1
  4279 ;; This function calls:
  4280 ;;		Nothing
  4281 ;; This function is called by:
  4282 ;;		_isr
  4283 ;; This function uses a non-reentrant model
  4284 ;;
  4285                           
  4286                           
  4287                           ;psect for function _resTimer1
  4288  065C                     _resTimer1:
  4289  065C                     i1l1713:	
  4290                           ;incstack = 0
  4291                           ; Regs used in _resTimer1: [wreg+status,2]
  4292                           
  4293                           
  4294                           ;C:/Users/david/DavidU/ElectronicaDigital2/Laboratorio2/Laboratorio/Lab2dig2.X/confPIC16
      +                          F887.c: 189:     uint8_t T1L = carga & 0xFF;
  4295  065C  0870               	movf	resTimer1@carga,w
  4296  065D  00F2               	movwf	??_resTimer1
  4297  065E  0872               	movf	??_resTimer1,w
  4298  065F  00F3               	movwf	resTimer1@T1L
  4299  0660                     i1l1715:
  4300                           
  4301                           ;C:/Users/david/DavidU/ElectronicaDigital2/Laboratorio2/Laboratorio/Lab2dig2.X/confPIC16
      +                          F887.c: 190:     uint8_t T1H = carga>>8;
  4302  0660  0871               	movf	resTimer1@carga+1,w
  4303  0661  00F2               	movwf	??_resTimer1
  4304  0662  0872               	movf	??_resTimer1,w
  4305  0663  00F4               	movwf	resTimer1@T1H
  4306  0664                     i1l1717:
  4307                           
  4308                           ;C:/Users/david/DavidU/ElectronicaDigital2/Laboratorio2/Laboratorio/Lab2dig2.X/confPIC16
      +                          F887.c: 191:     TMR1H = T1H;
  4309  0664  0874               	movf	resTimer1@T1H,w
  4310  0665  1283               	bcf	3,5	;RP0=0, select bank0
  4311  0666  1303               	bcf	3,6	;RP1=0, select bank0
  4312  0667  008F               	movwf	15	;volatile
  4313  0668                     i1l1719:
  4314                           
  4315                           ;C:/Users/david/DavidU/ElectronicaDigital2/Laboratorio2/Laboratorio/Lab2dig2.X/confPIC16
      +                          F887.c: 192:     TMR1L = T1L;
  4316  0668  0873               	movf	resTimer1@T1L,w
  4317  0669  008E               	movwf	14	;volatile
  4318  066A                     i1l1721:
  4319                           
  4320                           ;C:/Users/david/DavidU/ElectronicaDigital2/Laboratorio2/Laboratorio/Lab2dig2.X/confPIC16
      +                          F887.c: 193:     PIR1bits.TMR1IF=0;
  4321  066A  100C               	bcf	12,0	;volatile
  4322  066B                     i1l247:
  4323  066B  0008               	return
  4324  066C                     __end_of_resTimer1:
  4325  007E                     btemp	set	126	;btemp
  4326  007E                     wtemp0	set	126
  4327                           
  4328                           	psect	config
  4329                           
  4330                           ;Config register CONFIG1 @ 0x2007
  4331                           ;	Oscillator Selection bits
  4332                           ;	FOSC = INTRC_NOCLKOUT, INTOSCIO oscillator: I/O function on RA6/OSC2/CLKOUT pin, I/O f
      +                          unction on RA7/OSC1/CLKIN
  4333                           ;	Watchdog Timer Enable bit
  4334                           ;	WDTE = OFF, WDT disabled and can be enabled by SWDTEN bit of the WDTCON register
  4335                           ;	Power-up Timer Enable bit
  4336                           ;	PWRTE = OFF, PWRT disabled
  4337                           ;	RE3/MCLR pin function select bit
  4338                           ;	MCLRE = OFF, RE3/MCLR pin function is digital input, MCLR internally tied to VDD
  4339                           ;	Code Protection bit
  4340                           ;	CP = OFF, Program memory code protection is disabled
  4341                           ;	Data Code Protection bit
  4342                           ;	CPD = OFF, Data memory code protection is disabled
  4343                           ;	Brown Out Reset Selection bits
  4344                           ;	BOREN = OFF, BOR disabled
  4345                           ;	Internal External Switchover bit
  4346                           ;	IESO = OFF, Internal/External Switchover mode is disabled
  4347                           ;	Fail-Safe Clock Monitor Enabled bit
  4348                           ;	FCMEN = OFF, Fail-Safe Clock Monitor is disabled
  4349                           ;	Low Voltage Programming Enable bit
  4350                           ;	LVP = OFF, RB3 pin has digital I/O, HV on MCLR must be used for programming
  4351                           ;	In-Circuit Debugger Mode bit
  4352                           ;	DEBUG = 0x1, unprogrammed default
  4353  2007                     	org	8199
  4354  2007  20D4               	dw	8404
  4355                           
  4356                           ;Config register CONFIG2 @ 0x2008
  4357                           ;	Brown-out Reset Selection bit
  4358                           ;	BOR4V = BOR40V, Brown-out Reset set to 4.0V
  4359                           ;	Flash Program Memory Self Write Enable bits
  4360                           ;	WRT = OFF, Write protection off
  4361  2008                     	org	8200
  4362  2008  3FFF               	dw	16383

Data Sizes:
    Strings     18
    Constant    0
    Data        0
    BSS         32
    Persistent  0
    Stack       0

Auto Spaces:
    Space          Size  Autos    Used
    COMMON           14      7       7
    BANK0            80     43      75
    BANK1            80      0       0
    BANK3            96      0       0
    BANK2            96      0       0

Pointer List with Targets:

    strlen@s	PTR const unsigned char  size(2) Largest target is 15
		 -> STR_4(CODE[3]), STR_3(CODE[15]), STR_2(CODE[3]), main@tempTexto(BANK0[4]), 
		 -> main@contTexto(BANK0[4]), main@potTexto(BANK0[5]), STR_1(CODE[15]), 

    strlen@cp	PTR const unsigned char  size(2) Largest target is 15
		 -> STR_4(CODE[3]), STR_3(CODE[15]), STR_2(CODE[3]), main@tempTexto(BANK0[4]), 
		 -> main@contTexto(BANK0[4]), main@potTexto(BANK0[5]), STR_1(CODE[15]), 

    LCDprintText@texto	PTR unsigned char  size(2) Largest target is 15
		 -> STR_2(CODE[3]), main@tempTexto(BANK0[4]), main@contTexto(BANK0[4]), main@potTexto(BANK0[5]), 
		 -> STR_1(CODE[15]), 

    UARTprintText@texto	PTR unsigned char  size(2) Largest target is 15
		 -> STR_4(CODE[3]), STR_3(CODE[15]), main@tempTexto(BANK0[4]), main@contTexto(BANK0[4]), 
		 -> main@potTexto(BANK0[5]), 

    SPIreadValue@variable	PTR unsigned char  size(1) Largest target is 1
		 -> temp(BANK0[1]), cont(BANK0[1]), pot(BANK0[1]), 

    separar_numero@unidades	PTR unsigned char  size(1) Largest target is 5
		 -> tempS(BANK0[5]), contS(BANK0[5]), potS(BANK0[5]), 

    separar_numero@decenas	PTR unsigned char  size(1) Largest target is 5
		 -> tempS(BANK0[5]), contS(BANK0[5]), potS(BANK0[5]), 

    separar_numero@centenas	PTR unsigned char  size(1) Largest target is 5
		 -> tempS(BANK0[5]), contS(BANK0[5]), potS(BANK0[5]), 


Critical Paths under _main in COMMON

    None.

Critical Paths under _isr in COMMON

    _isr->_resTimer1

Critical Paths under _main in BANK0

    _main->_separar_numero
    _separar_numero->___awdiv
    ___awdiv->___wmul
    _initLCD->_LCD_functionSet
    _LCD_functionSet->_LCD_executeInstruction
    _LCD_entryMode_set->_LCD_executeInstruction
    _LCD_displayOnOff->_LCD_executeInstruction
    _LCD_clearDisplay->_LCD_executeInstruction
    _configuracion->_setupTimer1
    _UARTprintText->_strlen
    _LCDprintText->_strlen
    _LCD_wRAM->_LCD_executeInstruction
    _LCD_setDDRAM->_LCD_executeInstruction

Critical Paths under _isr in BANK0

    None.

Critical Paths under _main in BANK1

    None.

Critical Paths under _isr in BANK1

    None.

Critical Paths under _main in BANK3

    None.

Critical Paths under _isr in BANK3

    None.

Critical Paths under _main in BANK2

    None.

Critical Paths under _isr in BANK2

    None.

Call Graph Tables:

 ---------------------------------------------------------------------------------
 (Depth) Function   	        Calls       Base Space   Used Autos Params    Refs
 ---------------------------------------------------------------------------------
 (0) _main                                                18    18      0    7540
                                             25 BANK0     18    18      0
                       _LCD_setDDRAM
                           _LCD_wRAM
                       _LCDprintText
                       _SPIreadValue
                       _SPIsendValue
                 _UARTprintCharacter
                     _UARTprintDigit
                      _UARTprintText
                            ___awdiv
                             ___wmul
                      _configuracion
                            _initLCD
                        _selectSlave
                     _separar_numero
 ---------------------------------------------------------------------------------
 (1) _separar_numero                                      10     5      5    2622
                                             15 BANK0     10     5      5
                            ___awdiv
                            ___awmod
 ---------------------------------------------------------------------------------
 (2) ___awmod                                              7     3      4     600
                                              0 BANK0      7     3      4
 ---------------------------------------------------------------------------------
 (2) ___awdiv                                              9     5      4     756
                                              6 BANK0      9     5      4
                             ___wmul (ARG)
 ---------------------------------------------------------------------------------
 (1) _selectSlave                                          3     3      0      22
                                              0 BANK0      3     3      0
 ---------------------------------------------------------------------------------
 (1) _initLCD                                              2     2      0    1164
                                              8 BANK0      2     2      0
                   _LCD_clearDisplay
                   _LCD_displayOnOff
                  _LCD_entryMode_set
                    _LCD_functionSet
 ---------------------------------------------------------------------------------
 (2) _LCD_functionSet                                      7     5      2     674
                                              1 BANK0      7     5      2
             _LCD_executeInstruction
 ---------------------------------------------------------------------------------
 (2) _LCD_entryMode_set                                    3     2      1     120
                                              1 BANK0      3     2      1
             _LCD_executeInstruction
 ---------------------------------------------------------------------------------
 (2) _LCD_displayOnOff                                     6     4      2     370
                                              1 BANK0      6     4      2
             _LCD_executeInstruction
 ---------------------------------------------------------------------------------
 (2) _LCD_clearDisplay                                     2     2      0       0
                                              1 BANK0      2     2      0
             _LCD_executeInstruction
 ---------------------------------------------------------------------------------
 (1) _configuracion                                        1     1      0     646
                                              7 BANK0      1     1      0
                  _T1enableInterrupt
                    _initSPI_maestro
                   _initUSARTransmit
                           _setupOsc
                        _setupTimer1
 ---------------------------------------------------------------------------------
 (2) _setupTimer1                                          7     4      3     286
                                              0 BANK0      7     4      3
 ---------------------------------------------------------------------------------
 (2) _setupOsc                                             3     2      1     120
                                              0 BANK0      3     2      1
 ---------------------------------------------------------------------------------
 (2) _initUSARTransmit                                     3     1      2     218
                                              0 BANK0      3     1      2
 ---------------------------------------------------------------------------------
 (2) _initSPI_maestro                                      1     1      0      22
                                              0 BANK0      1     1      0
 ---------------------------------------------------------------------------------
 (2) _T1enableInterrupt                                    0     0      0       0
 ---------------------------------------------------------------------------------
 (1) ___wmul                                               6     2      4     244
                                              0 BANK0      6     2      4
 ---------------------------------------------------------------------------------
 (1) _UARTprintText                                        5     3      2     734
                                              4 BANK0      5     3      2
                 _UARTprintCharacter
                             _strlen
 ---------------------------------------------------------------------------------
 (2) _UARTprintCharacter                                   1     1      0      22
                                              0 BANK0      1     1      0
 ---------------------------------------------------------------------------------
 (1) _UARTprintDigit                                       1     1      0      22
                                              0 BANK0      1     1      0
 ---------------------------------------------------------------------------------
 (1) _SPIsendValue                                         1     1      0      22
                                              0 BANK0      1     1      0
 ---------------------------------------------------------------------------------
 (1) _SPIreadValue                                         2     2      0     121
                                              0 BANK0      2     2      0
                    _SPIBufferVerify
 ---------------------------------------------------------------------------------
 (2) _SPIBufferVerify                                      0     0      0       0
 ---------------------------------------------------------------------------------
 (1) _LCDprintText                                         5     3      2     734
                                              4 BANK0      5     3      2
                           _LCD_wRAM
                             _strlen
 ---------------------------------------------------------------------------------
 (2) _strlen                                               4     2      2     242
                                              0 BANK0      4     2      2
 ---------------------------------------------------------------------------------
 (2) _LCD_wRAM                                             2     2      0      22
                                              1 BANK0      2     2      0
             _LCD_executeInstruction
 ---------------------------------------------------------------------------------
 (1) _LCD_setDDRAM                                         2     2      0      22
                                              1 BANK0      2     2      0
             _LCD_executeInstruction
 ---------------------------------------------------------------------------------
 (3) _LCD_executeInstruction                               1     1      0       0
                                              0 BANK0      1     1      0
 ---------------------------------------------------------------------------------
 Estimated maximum stack depth 3
 ---------------------------------------------------------------------------------
 (Depth) Function   	        Calls       Base Space   Used Autos Params    Refs
 ---------------------------------------------------------------------------------
 (4) _isr                                                  2     2      0     166
                                              5 COMMON     2     2      0
                          _resTimer1
 ---------------------------------------------------------------------------------
 (5) _resTimer1                                            5     3      2     166
                                              0 COMMON     5     3      2
 ---------------------------------------------------------------------------------
 Estimated maximum stack depth 5
 ---------------------------------------------------------------------------------

 Call Graph Graphs:

 _main (ROOT)
   _LCD_setDDRAM
     _LCD_executeInstruction
   _LCD_wRAM
     _LCD_executeInstruction
   _LCDprintText
     _LCD_wRAM
     _strlen
   _SPIreadValue
     _SPIBufferVerify
   _SPIsendValue
   _UARTprintCharacter
   _UARTprintDigit
   _UARTprintText
     _UARTprintCharacter
     _strlen
   ___awdiv
     ___wmul (ARG)
   ___wmul
   _configuracion
     _T1enableInterrupt
     _initSPI_maestro
     _initUSARTransmit
     _setupOsc
     _setupTimer1
   _initLCD
     _LCD_clearDisplay
       _LCD_executeInstruction
     _LCD_displayOnOff
       _LCD_executeInstruction
     _LCD_entryMode_set
       _LCD_executeInstruction
     _LCD_functionSet
       _LCD_executeInstruction
   _selectSlave
   _separar_numero
     ___awdiv
     ___awmod

 _isr (ROOT)
   _resTimer1

 Address spaces:
Name               Size   Autos  Total    Cost      Usage
BITCOMMON            E      0       0       0        0.0%
EEDATA             100      0       0       0        0.0%
NULL                 0      0       0       0        0.0%
CODE                 0      0       0       0        0.0%
COMMON               E      7       7       1       50.0%
BITSFR0              0      0       0       1        0.0%
SFR0                 0      0       0       1        0.0%
BITSFR1              0      0       0       2        0.0%
SFR1                 0      0       0       2        0.0%
STACK                0      0       0       2        0.0%
ABS                  0      0      52       3        0.0%
BITBANK0            50      0       0       4        0.0%
BITSFR3              0      0       0       4        0.0%
SFR3                 0      0       0       4        0.0%
BANK0               50     2B      4B       5       93.8%
BITSFR2              0      0       0       5        0.0%
SFR2                 0      0       0       5        0.0%
BITBANK1            50      0       0       6        0.0%
BANK1               50      0       0       7        0.0%
BITBANK3            60      0       0       8        0.0%
BANK3               60      0       0       9        0.0%
BITBANK2            60      0       0      10        0.0%
BANK2               60      0       0      11        0.0%
DATA                 0      0      52      12        0.0%


Microchip Technology PIC Macro Assembler V2.32 build 20210201212658 
Symbol Table                                                                                   Fri Feb 18 13:02:59 2022

         LCD_displayOnOff@cursor 0021           LCD_displayOnOff@on_off 0026              ??_T1enableInterrupt 0077  
                              pc 0002                      _SSPSTATbits 0094                     ___awdiv@sign 002C  
                 ?_configuracion 0070                               fsr 0004              ___wmul@multiplicand 0022  
                   setupOsc@freq 0022                              l121 04A6                              l122 04AA  
                            l123 04AE                              l115 028A                              l108 0401  
                            l124 04C5                              l310 0689                              l215 05F1  
                            l119 04A2                              l313 0620                              l250 06A6  
                            l322 0435                              l331 0649                              l244 05B9  
                            l316 059A                              l253 05D6                              l343 049D  
                            l271 06AD                              l431 04EC                              l319 0535  
                            l328 0635                              l280 068D                              l265 06B3  
                            l337 02F4                              l274 065B                              l283 0697  
                            l268 06A7                              l429 04D4                              l277 0511  
                            l286 066F                              l295 0469                              l289 067A  
                            l582 035D                              l595 03B8                              l883 0559  
                            u400 0693                              u401 0692                              u410 06AD  
                            u411 06AC                              u420 0551                              u500 0318  
                            u421 0550                              u501 0317                              u520 032A  
                            u600 037B                              u521 0329                              u601 037A  
                            u435 0585                              u515 031C                              u700 0469  
                            u540 033B                              u620 038D                              u701 0468  
                            u445 051B                              u541 033A                              u621 038C  
                            u710 0675                              u630 0397                              u711 0674  
                            u455 040B                              u535 032B                              u631 0396  
                            u615 037F                              u720 04CE                              u560 034F  
                            u480 02FC                              u705 0465                              u721 04CD  
                            u465 0413                              u561 034E                              u545 0337  
                            u481 02FB                              u570 0354                              u490 0307  
                            u650 03AA                              u475 041F                              u571 0353  
                            u555 0343                              u491 0306                              u651 03A9  
                            u635 0393                              u660 03AF                              u580 0365  
                            u661 03AE                              u645 039E                              u581 0364  
                            u670 049D                              u750 04E8                              u590 0370  
                            u671 049C                              u751 04E7                              u735 04D5  
                            u591 036F                              u807 005A                              u680 0229  
                            u745 04DC                              u681 0228                              u817 0073  
                            u690 0265                              u770 00F0                              u907 0632  
                            u675 0499                              u827 0291                              u691 0264  
                            u780 0186                              u917 0682                              u837 02A6  
                            u685 0225                              u781 0185                              u847 02B8  
                            u695 0261                              u857 0432                              u867 0597  
                            u877 0532                              u797 0041                              u887 061B  
                            u897 0646                              _isr 05F2                              _pot 006A  
                            fsr0 0004                              indf 0000                     ___awmod@sign 0026  
               selectSlave@slave 0022        __end_of_T1enableInterrupt 06A7                             l2011 04BA  
                           l1521 0639                             l1601 057F                             l1515 067B  
                           l1523 063B                             l1531 0693                             l1611 0515  
                           l1603 0581                             l1517 067E                             l1525 063D  
                           l1541 05C7                             l1533 05DA                             l1613 0517  
                           l1605 0582                             l1621 0405                             l1701 039D  
                           l1519 0686                             l1527 0642                             l1543 05CE  
                           l1551 04F0                             l1535 05E1                             l1615 0518  
                           l1607 058E                             l1623 0407                             l1631 02F5  
                           l1703 03A4                             l1529 068D                             l1545 05D1  
                           l1561 050D                             l1553 0500                             l1617 0529  
                           l1609 0593                             l1625 0408                             l1641 0307  
                           l1633 02F8                             l1705 03AA                             l1801 0248  
                           l1811 0624                             l1547 05D2                             l1539 05BD  
                           l1563 050E                             l1555 0506                             l1571 05AC  
                           l1731 03E7                             l1723 03B9                             l1619 052E  
                           l1627 0429                             l1651 031B                             l1643 030C  
                           l1635 02FC                             l1707 03AF                             l1803 025B  
                           l1813 0626                             l1581 06A7                             l1821 043A  
                           l1549 05D3                             l1557 0509                             l1573 05B4  
                           l1565 059E                             l1741 03FF                             l1733 03F5  
                           l1725 03CB                             l1629 042E                             l1661 0341  
                           l1653 0322                             l1645 0310                             l1637 0301  
                           l1709 03B4                             l1805 0265                             l1901 0113  
                           l1815 0629                             l1583 0536                             l1823 044B  
                           l1831 04C6                             l1559 050C                             l1575 05B6  
                           l1567 05A3                             l1743 0400                             l1735 03F6  
                           l1727 03D3                             l1751 02A0                             l1671 0359  
                           l1663 0342                             l1655 0326                             l1647 0312  
                           l1639 0303                             l1807 026A                             l1911 012B  
                           l1903 0118                             l1817 062E                             l1585 053D  
                           l1825 0451                             l1841 04E8                             l1833 04CA  
                           l1577 05B8                             l1569 05AB                             l1737 03F7  
                           l1729 03D9                             l1593 060A                             l1761 02DA  
                           l1753 02B4                             l1665 0349                             l1657 032A  
                           l1649 0318                             l1681 036A                             l1809 0284  
                           l1921 0141                             l1913 0130                             l1905 011D  
                           l1587 0543                             l1771 047F                             l1827 066F  
                           l1819 0436                             l1835 04CE                             l1579 06A0  
                           l1739 03FC                             l1595 060E                             l1763 02DF  
                           l1755 02BB                             l1747 028B                             l1659 033B  
                           l1667 034F                             l1691 037E                             l1683 036C  
                           l1675 035E                             l1931 016E                             l1923 014C  
                           l1915 0135                             l1907 0122                             l1851 001C  
                           l1589 0551                             l1773 0485                             l1829 0675  
                           l1837 04DB                             l1597 0610                             l1765 02E8  
                           l1757 02C5                             l1749 0296                             l1669 0354  
                           l1693 0385                             l1685 0370                             l1677 0361  
                           l1941 0195                             l1933 0179                             l1925 0152  
                           l1917 013A                             l1909 0123                             l1861 0044  
                           l1853 0026                             l1767 046A                             l1791 0652  
                           l1839 04E2                             l1599 0615                             l1759 02D0  
                           l1775 04A1                             l1695 0389                             l1687 0375  
                           l1679 0365                             l1951 01D3                             l1943 01AC  
                           l1935 017F                             l1927 0158                             l1919 013B  
                           l1871 0063                             l1863 004A                             l1855 0031  
                           l1769 046E                             l1697 038D                             l1689 037B  
                           l1793 020A                             l1961 01F7                             l1953 01D9  
                           l1945 01B7                             l1937 0186                             l1929 0163  
                           l1881 00A3                             l1873 0069                             l1865 0050  
                           l1857 0037                             l1787 06B1                             l1779 04B2  
                           l1699 0397                             l1795 021F                             l1963 01FD  
                           l1955 01DF                             l1947 01C2                             l1939 018F  
                           l1891 00FC                             l1883 00B8                             l1875 006F  
                           l1867 0056                             l1859 003D                             l1789 064D  
                           l1797 0229                             l1965 0203                             l1957 01E7  
                           l1949 01CD                             l1893 0100                             l1885 00D2  
                           l1877 0076                             l1869 005D                             l1799 022E  
                           l1959 01EF                             l1895 0105                             l1887 00EC  
                           l1879 007C                             l1897 010A                             l1889 00F5  
                           l1899 010B                             ?_isr 0070                             STR_1 056A  
                           STR_2 0579                             STR_3 056A                             STR_4 0579  
                           i1l90 0603                             _TMR0 0001                  ??_UARTprintText 0026  
      __size_of_initUSARTransmit 0025                             _cont 0069                             _main 001C  
                           _potS 0063                             _temp 0068                             btemp 007E  
                           start 000C            __size_of_SPIreadValue 0012             separar_numero@numaux 0037  
           separar_numero@numero 002F                   setupOsc@clkSrc 0020                            ??_isr 0075  
               __end_of_LCD_wRAM 064A            __size_of_SPIsendValue 0006                            ?_main 0070  
                __end_of___awdiv 035E                  __end_of___awmod 03B9                            _ANSEL 0188  
                ___awdiv@divisor 0026                            i1l247 066B                  ___awdiv@counter 002B  
                          _TMR1H 000F                            _TMR1L 000E                            _SPBRG 0099  
                          _PORTA 0005                            _PORTB 0006                            _PORTC 0007  
                          _PORTD 0008                            _PORTE 0009                            _TRISA 0085  
                          _TRISB 0086                            _TRISC 0087                            _TRISD 0088  
                          _TRISE 0089                 ??_UARTprintDigit 0077                            u76_20 05F8  
                          u76_21 05F7                            _TXREG 0019                    ?_LCD_setDDRAM 0070  
                __end_of_initLCD 02F5                            _contS 005E                            _tempS 0059  
                   main@potTexto 003E                            pclath 000A                     _SPIreadValue 064A  
          separar_numero@decenas 0032                            status 0003                   setupTimer1@T1H 0026  
                 setupTimer1@T1L 0025                            wtemp0 007E                  __initialization 000F  
                   _SPIsendValue 06AE            initUSARTransmit@BRG16 0020                     __end_of_main 020A  
          separar_numero@numaux2 0035                  ??_configuracion 0027                _LCD_entryMode_set 057C  
             ?_LCD_entryMode_set 0021       __end_of_UARTprintCharacter 0698                           ??_main 0039  
        LCD_functionSet@dispFont 0022              LCD_setDDRAM@address 0022                   ??_LCD_setDDRAM 0021  
       __end_of_LCD_displayOnOff 0536              ??_LCD_entryMode_set 0022       UARTprintCharacter@caracter 0020  
       __size_of_LCD_functionSet 0034                    main@contTexto 0043                     ?_selectSlave 0070  
           UARTprintDigit@digito 0020       __size_of_T1enableInterrupt 0007                 ___awdiv@dividend 0028  
                         _ANSELH 0189                           i1l1721 066A                           i1l1713 065C  
                         i1l1715 0660                           i1l1717 0664                           i1l1719 0668  
                         i1l1845 05F2                           i1l1847 05F8                           i1l1849 05FA  
                         _SSPBUF 0013                    ?_LCDprintText 0024        __end_of_LCD_entryMode_set 059B  
                   LCD_wRAM@data 0022                           ___wmul 04C6                        ??___awdiv 002A  
                      ??___awmod 0024          __size_of_separar_numero 0081                 ___awdiv@quotient 002D  
                ___awmod@divisor 0020                    main@tempTexto 0047                  ___awmod@counter 0025  
                         _strlen 0536                        ??_initLCD 0028                           saved_w 007E  
               __end_of_setupOsc 05F2                     ?_setupTimer1 0020           separar_numero@centenas 0031  
                 ??_LCDprintText 0026                 _initUSARTransmit 04ED          __end_of__initialization 0018  
         LCD_entryMode_set@shift 0021         __size_of_initSPI_maestro 001D                ?_LCD_clearDisplay 0070  
                      ?_LCD_wRAM 0070               ??_LCD_clearDisplay 0021         __size_of_SPIBufferVerify 0007  
                 __pcstackCOMMON 0070                LCDprintText@texto 0024           separar_numero@unidades 0033  
          LCD_functionSet@lineNo 0021                   _OPTION_REGbits 0081                       __pbssBANK0 004B  
              ??_LCD_functionSet 0023                       ??_LCD_wRAM 0021             __end_of_LCD_setDDRAM 0636  
     __size_of_LCD_entryMode_set 001F                       __pmaintext 001C                          ?___wmul 0020  
             __size_of_resTimer1 0010                       __pintentry 0004                          ?_strlen 0020  
                     __stringtab 055A             __size_of_selectSlave 0028         ??_LCD_executeInstruction 0020  
          __end_of_UARTprintText 046A                ??_initSPI_maestro 0077                        ?_setupOsc 0020  
                        ___awdiv 02F5                          ___awmod 035E                  __size_of___wmul 0027  
                 _separar_numero 020A                        _ANSELbits 0188                ??_SPIBufferVerify 0077  
                        __ptext1 020A                          __ptext2 035E                          __ptext3 02F5  
                        __ptext4 049E                          __ptext5 028B                          __ptext6 0402  
                        __ptext7 057C                          __ptext8 0512                          __ptext9 060A  
           __end_of_LCDprintText 049E                  __size_of_strlen 0024                          _initLCD 028B  
                      _T1CONbits 0010                     __size_of_isr 0018                 ___awmod@dividend 0022  
              ?_LCD_displayOnOff 0021               ??_LCD_displayOnOff 0023                          clrloop0 0699  
              __end_of_resTimer1 066C               _UARTprintCharacter 068A             end_of_initialization 0018  
           __size_of_setupTimer1 001F              ?_UARTprintCharacter 0070           __end_of_separar_numero 028B  
                      _RCSTAbits 0018                       ??_setupOsc 0021            __end_of_configuracion 0402  
                        strlen@s 0020         __end_of_initUSARTransmit 0512                        _PORTAbits 0005  
                      _PORTDbits 0008                        _PORTEbits 0009             ??_UARTprintCharacter 0077  
               setupTimer1@carga 0021            LCD_displayOnOff@blink 0022                        _TRISAbits 0085  
                      _TRISBbits 0086                        _TRISCbits 0087                        _TRISEbits 0089  
          __size_of_LCD_setDDRAM 0015          __size_of_UARTprintDigit 000F                        _TXSTAbits 0098  
__size_of_LCD_executeInstruction 000F                     _comunicacion 0058                __size_of_LCD_wRAM 0014  
                ?_separar_numero 002F                   __end_of___wmul 04ED        __size_of_LCD_clearDisplay 0017  
                    _BAUDCTLbits 0187                   __end_of_strlen 055A              start_initialization 000F  
                _LCD_functionSet 0402                     _LCD_setDDRAM 0621                      __end_of_isr 060A  
           initUSARTransmit@BRGH 0022             initUSARTransmit@vBRG 0021                         ??___wmul 0077  
          __size_of_LCDprintText 0034                         ??_strlen 0077           _LCD_executeInstruction 067B  
                      ___latbits 0002                    __pcstackBANK0 0020             LCD_functionSet@dataL 0027  
                _initSPI_maestro 05BA                    ?_SPIreadValue 0070                     _LCDprintText 046A  
                _SPIBufferVerify 06A7                    ?_SPIsendValue 0070                     resTimer1@T1H 0074  
                   resTimer1@T1L 0073                         ?___awdiv 0026                         ?___awmod 0020  
        __end_of_LCD_functionSet 0436                __size_of_setupOsc 001B                        __pstrings 055A  
                       ?_initLCD 0070                   resTimer1@carga 0070               UARTprintText@texto 0024  
                  ??_selectSlave 0020                   ??_SPIreadValue 0020                   _UARTprintDigit 066C  
              interrupt_function 0004                   ___wmul@product 0024                         _IOCBbits 0096  
                       _LCD_wRAM 0636                        _resTimer1 065C                        clear_ram0 0698  
                       _PIE1bits 008C        __size_of_LCD_displayOnOff 0024                   ??_SPIsendValue 0077  
                       _PIR1bits 000C           initSPI_maestro@SPIfosc 0020                        main@F1480 0050  
                      main@F1476 004B                        main@F1478 0054                 _LCD_clearDisplay 060A  
                     _ADCON0bits 001F                      __stringbase 0569                       _ADCON1bits 009F  
              ___wmul@multiplier 0020                ?_initUSARTransmit 0020           __size_of_UARTprintText 0034  
             ??_initUSARTransmit 0077          __end_of_initSPI_maestro 05D7                    ??_setupTimer1 0023  
         __end_of_UARTprintDigit 067B          __end_of_SPIBufferVerify 06AE              __end_of_selectSlave 04C6  
                     ?_resTimer1 0070                 ??_separar_numero 0034                 __size_of___awdiv 0069  
               __size_of___awmod 005B                 ?_LCD_functionSet 0021               __end_of__stringtab 056A  
                     _ANSELHbits 0189      __size_of_UARTprintCharacter 000E                 __size_of_initLCD 006A  
                       __ptext10 03B9                         __ptext11 059B                         __ptext20 06AE  
                       __ptext12 05D7                         __ptext21 064A                         __ptext13 04ED  
                       __ptext22 06A7                         __ptext14 05BA                         __ptext23 046A  
                       __ptext15 06A0                         __ptext24 0536                         __ptext16 04C6  
                       __ptext25 0636                         __ptext17 0436                         __ptext26 0621  
                       __ptext18 068A                         __ptext27 067B                         __ptext19 066C  
                       __ptext28 05F2                         __ptext29 065C                  ?_UARTprintDigit 0070  
         __size_of_configuracion 0049                    __size_of_main 01EE              __end_of_setupTimer1 05BA  
                  _UARTprintText 0436                         _setupOsc 05D7          ?_LCD_executeInstruction 0070  
           __end_of_SPIreadValue 065C                SPIsendValue@valor 0020                    LCDprintText@i 0028  
                     _INTCONbits 000B             __end_of_SPIsendValue 06B4                 ?_initSPI_maestro 0070  
           SPIreadValue@variable 0021                      _selectSlave 049E                         intlevel1 0000  
               ?_SPIBufferVerify 0070                      ??_resTimer1 0072                   ?_UARTprintText 0024  
               _LCD_displayOnOff 0512                        stringcode 0564                       _OSCCONbits 008F  
 __end_of_LCD_executeInstruction 068A                    _configuracion 03B9                         strlen@cp 0022  
                       stringdir 0564                         stringtab 055A                      _setupTimer1 059B  
                 UARTprintText@i 0028             setupTimer1@prescaler 0020         __end_of_LCD_clearDisplay 0621  
              _T1enableInterrupt 06A0                setupTimer1@clkSrc 0024               ?_T1enableInterrupt 0070  
                     _SSPCONbits 0014         LCD_entryMode_set@inc_dec 0023  
